
bin/kernel:     file format elf64-littleriscv


Disassembly of section .text:

ffffffffc0200000 <kern_entry>:
    #a代表段是可访问的（allocatable），x代表段是可执行的（executable）
    #progbits：指示符，告诉汇编器这个段包含的是程序的正文（code），而不是其他类型的内容，如符号表或字符串表。
    .globl kern_entry
kern_entry:
    # t0 := 三级页表的虚拟地址
    lui     t0, %hi(boot_page_table_sv39)
ffffffffc0200000:	c02052b7          	lui	t0,0xc0205
    #%hi：伪操作，用于获取一个符号的高位部分。地址是64位的，%hi会获取符号地址的高位。
    # t1 := 0xffffffff40000000 即虚实映射偏移量
    li      t1, 0xffffffffc0000000 - 0x80000000
ffffffffc0200004:	ffd0031b          	addiw	t1,zero,-3
ffffffffc0200008:	037a                	slli	t1,t1,0x1e
    # t0 减去虚实映射偏移量 0xffffffff40000000，变为三级页表的物理地址
    sub     t0, t0, t1
ffffffffc020000a:	406282b3          	sub	t0,t0,t1
    # t0 >>= 12，变为三级页表的物理页号,because page offset is 12 bit
    srli    t0, t0, 12
ffffffffc020000e:	00c2d293          	srli	t0,t0,0xc

    # t1 := 8 << 60，设置 satp 的 MODE 字段为 Sv39
    li      t1, 8 << 60
ffffffffc0200012:	fff0031b          	addiw	t1,zero,-1
ffffffffc0200016:	137e                	slli	t1,t1,0x3f
    # 将刚才计算出的预设三级页表物理页号附加到 satp 中
    #t1=1000....0000
    or      t0, t0, t1
ffffffffc0200018:	0062e2b3          	or	t0,t0,t1
    # 将算出的 t0(即新的MODE|页表基址物理页号) 覆盖到 satp 中
    csrw    satp, t0
ffffffffc020001c:	18029073          	csrw	satp,t0
    # 使用 sfence.vma 指令刷新 TLB
    sfence.vma
ffffffffc0200020:	12000073          	sfence.vma
    # 从此，我们给内核搭建出了一个完美的虚拟内存空间！
    #nop # 可能映射的位置有些bug。。插入一个nop
    
    # 我们在虚拟内存空间中：随意将 sp 设置为虚拟地址！
    lui sp, %hi(bootstacktop)
ffffffffc0200024:	c0205137          	lui	sp,0xc0205

    # 我们在虚拟内存空间中：随意跳转到虚拟地址！
    # 跳转到 kern_init
    lui t0, %hi(kern_init)
ffffffffc0200028:	c02002b7          	lui	t0,0xc0200
    addi t0, t0, %lo(kern_init)
ffffffffc020002c:	03228293          	addi	t0,t0,50 # ffffffffc0200032 <kern_init>
    jr t0
ffffffffc0200030:	8282                	jr	t0

ffffffffc0200032 <kern_init>:
void grade_backtrace(void);


int kern_init(void) {
    extern char edata[], end[];
    memset(edata, 0, end - edata);
ffffffffc0200032:	00006517          	auipc	a0,0x6
ffffffffc0200036:	fde50513          	addi	a0,a0,-34 # ffffffffc0206010 <free_area>
ffffffffc020003a:	00006617          	auipc	a2,0x6
ffffffffc020003e:	43660613          	addi	a2,a2,1078 # ffffffffc0206470 <end>
int kern_init(void) {
ffffffffc0200042:	1141                	addi	sp,sp,-16
    memset(edata, 0, end - edata);
ffffffffc0200044:	8e09                	sub	a2,a2,a0
ffffffffc0200046:	4581                	li	a1,0
int kern_init(void) {
ffffffffc0200048:	e406                	sd	ra,8(sp)
    memset(edata, 0, end - edata);
ffffffffc020004a:	45e010ef          	jal	ra,ffffffffc02014a8 <memset>
    cons_init();  // init the console
ffffffffc020004e:	3fc000ef          	jal	ra,ffffffffc020044a <cons_init>
    const char *message = "(THU.CST) os is loading ...\0";
    //cprintf("%s\n\n", message);
    cputs(message);
ffffffffc0200052:	00002517          	auipc	a0,0x2
ffffffffc0200056:	95e50513          	addi	a0,a0,-1698 # ffffffffc02019b0 <etext+0x4>
ffffffffc020005a:	090000ef          	jal	ra,ffffffffc02000ea <cputs>

    print_kerninfo();
ffffffffc020005e:	138000ef          	jal	ra,ffffffffc0200196 <print_kerninfo>

    // grade_backtrace();
    idt_init();  // init interrupt descriptor table
ffffffffc0200062:	402000ef          	jal	ra,ffffffffc0200464 <idt_init>

    pmm_init();  // init physical memory management
ffffffffc0200066:	053000ef          	jal	ra,ffffffffc02008b8 <pmm_init>

    idt_init();  // init interrupt descriptor table
ffffffffc020006a:	3fa000ef          	jal	ra,ffffffffc0200464 <idt_init>

    clock_init();   // init clock interrupt
ffffffffc020006e:	39a000ef          	jal	ra,ffffffffc0200408 <clock_init>
    intr_enable();  // enable irq interrupt
ffffffffc0200072:	3e6000ef          	jal	ra,ffffffffc0200458 <intr_enable>



    /* do nothing */
    while (1)
ffffffffc0200076:	a001                	j	ffffffffc0200076 <kern_init+0x44>

ffffffffc0200078 <cputch>:
/* *
 * cputch - writes a single character @c to stdout, and it will
 * increace the value of counter pointed by @cnt.
 * */
static void
cputch(int c, int *cnt) {
ffffffffc0200078:	1141                	addi	sp,sp,-16
ffffffffc020007a:	e022                	sd	s0,0(sp)
ffffffffc020007c:	e406                	sd	ra,8(sp)
ffffffffc020007e:	842e                	mv	s0,a1
    cons_putc(c);
ffffffffc0200080:	3cc000ef          	jal	ra,ffffffffc020044c <cons_putc>
    (*cnt) ++;
ffffffffc0200084:	401c                	lw	a5,0(s0)
}
ffffffffc0200086:	60a2                	ld	ra,8(sp)
    (*cnt) ++;
ffffffffc0200088:	2785                	addiw	a5,a5,1
ffffffffc020008a:	c01c                	sw	a5,0(s0)
}
ffffffffc020008c:	6402                	ld	s0,0(sp)
ffffffffc020008e:	0141                	addi	sp,sp,16
ffffffffc0200090:	8082                	ret

ffffffffc0200092 <vcprintf>:
 *
 * Call this function if you are already dealing with a va_list.
 * Or you probably want cprintf() instead.
 * */
int
vcprintf(const char *fmt, va_list ap) {
ffffffffc0200092:	1101                	addi	sp,sp,-32
ffffffffc0200094:	862a                	mv	a2,a0
ffffffffc0200096:	86ae                	mv	a3,a1
    int cnt = 0;
    vprintfmt((void*)cputch, &cnt, fmt, ap);
ffffffffc0200098:	00000517          	auipc	a0,0x0
ffffffffc020009c:	fe050513          	addi	a0,a0,-32 # ffffffffc0200078 <cputch>
ffffffffc02000a0:	006c                	addi	a1,sp,12
vcprintf(const char *fmt, va_list ap) {
ffffffffc02000a2:	ec06                	sd	ra,24(sp)
    int cnt = 0;
ffffffffc02000a4:	c602                	sw	zero,12(sp)
    vprintfmt((void*)cputch, &cnt, fmt, ap);
ffffffffc02000a6:	480010ef          	jal	ra,ffffffffc0201526 <vprintfmt>
    return cnt;
}
ffffffffc02000aa:	60e2                	ld	ra,24(sp)
ffffffffc02000ac:	4532                	lw	a0,12(sp)
ffffffffc02000ae:	6105                	addi	sp,sp,32
ffffffffc02000b0:	8082                	ret

ffffffffc02000b2 <cprintf>:
 *
 * The return value is the number of characters which would be
 * written to stdout.
 * */
int
cprintf(const char *fmt, ...) {
ffffffffc02000b2:	711d                	addi	sp,sp,-96
    va_list ap;
    int cnt;
    va_start(ap, fmt);
ffffffffc02000b4:	02810313          	addi	t1,sp,40 # ffffffffc0205028 <boot_page_table_sv39+0x28>
cprintf(const char *fmt, ...) {
ffffffffc02000b8:	8e2a                	mv	t3,a0
ffffffffc02000ba:	f42e                	sd	a1,40(sp)
ffffffffc02000bc:	f832                	sd	a2,48(sp)
ffffffffc02000be:	fc36                	sd	a3,56(sp)
    vprintfmt((void*)cputch, &cnt, fmt, ap);
ffffffffc02000c0:	00000517          	auipc	a0,0x0
ffffffffc02000c4:	fb850513          	addi	a0,a0,-72 # ffffffffc0200078 <cputch>
ffffffffc02000c8:	004c                	addi	a1,sp,4
ffffffffc02000ca:	869a                	mv	a3,t1
ffffffffc02000cc:	8672                	mv	a2,t3
cprintf(const char *fmt, ...) {
ffffffffc02000ce:	ec06                	sd	ra,24(sp)
ffffffffc02000d0:	e0ba                	sd	a4,64(sp)
ffffffffc02000d2:	e4be                	sd	a5,72(sp)
ffffffffc02000d4:	e8c2                	sd	a6,80(sp)
ffffffffc02000d6:	ecc6                	sd	a7,88(sp)
    va_start(ap, fmt);
ffffffffc02000d8:	e41a                	sd	t1,8(sp)
    int cnt = 0;
ffffffffc02000da:	c202                	sw	zero,4(sp)
    vprintfmt((void*)cputch, &cnt, fmt, ap);
ffffffffc02000dc:	44a010ef          	jal	ra,ffffffffc0201526 <vprintfmt>
    cnt = vcprintf(fmt, ap);
    va_end(ap);
    return cnt;
}
ffffffffc02000e0:	60e2                	ld	ra,24(sp)
ffffffffc02000e2:	4512                	lw	a0,4(sp)
ffffffffc02000e4:	6125                	addi	sp,sp,96
ffffffffc02000e6:	8082                	ret

ffffffffc02000e8 <cputchar>:

/* cputchar - writes a single character to stdout */
void
cputchar(int c) {
    cons_putc(c);
ffffffffc02000e8:	a695                	j	ffffffffc020044c <cons_putc>

ffffffffc02000ea <cputs>:
/* *
 * cputs- writes the string pointed by @str to stdout and
 * appends a newline character.
 * */
int
cputs(const char *str) {
ffffffffc02000ea:	1101                	addi	sp,sp,-32
ffffffffc02000ec:	e822                	sd	s0,16(sp)
ffffffffc02000ee:	ec06                	sd	ra,24(sp)
ffffffffc02000f0:	e426                	sd	s1,8(sp)
ffffffffc02000f2:	842a                	mv	s0,a0
    int cnt = 0;
    char c;
    while ((c = *str ++) != '\0') {
ffffffffc02000f4:	00054503          	lbu	a0,0(a0)
ffffffffc02000f8:	c51d                	beqz	a0,ffffffffc0200126 <cputs+0x3c>
ffffffffc02000fa:	0405                	addi	s0,s0,1
ffffffffc02000fc:	4485                	li	s1,1
ffffffffc02000fe:	9c81                	subw	s1,s1,s0
    cons_putc(c);
ffffffffc0200100:	34c000ef          	jal	ra,ffffffffc020044c <cons_putc>
    while ((c = *str ++) != '\0') {
ffffffffc0200104:	00044503          	lbu	a0,0(s0)
ffffffffc0200108:	008487bb          	addw	a5,s1,s0
ffffffffc020010c:	0405                	addi	s0,s0,1
ffffffffc020010e:	f96d                	bnez	a0,ffffffffc0200100 <cputs+0x16>
    (*cnt) ++;
ffffffffc0200110:	0017841b          	addiw	s0,a5,1
    cons_putc(c);
ffffffffc0200114:	4529                	li	a0,10
ffffffffc0200116:	336000ef          	jal	ra,ffffffffc020044c <cons_putc>
        cputch(c, &cnt);
    }
    cputch('\n', &cnt);
    return cnt;
}
ffffffffc020011a:	60e2                	ld	ra,24(sp)
ffffffffc020011c:	8522                	mv	a0,s0
ffffffffc020011e:	6442                	ld	s0,16(sp)
ffffffffc0200120:	64a2                	ld	s1,8(sp)
ffffffffc0200122:	6105                	addi	sp,sp,32
ffffffffc0200124:	8082                	ret
    while ((c = *str ++) != '\0') {
ffffffffc0200126:	4405                	li	s0,1
ffffffffc0200128:	b7f5                	j	ffffffffc0200114 <cputs+0x2a>

ffffffffc020012a <getchar>:

/* getchar - reads a single non-zero character from stdin */
int
getchar(void) {
ffffffffc020012a:	1141                	addi	sp,sp,-16
ffffffffc020012c:	e406                	sd	ra,8(sp)
    int c;
    while ((c = cons_getc()) == 0)
ffffffffc020012e:	326000ef          	jal	ra,ffffffffc0200454 <cons_getc>
ffffffffc0200132:	dd75                	beqz	a0,ffffffffc020012e <getchar+0x4>
        /* do nothing */;
    return c;
}
ffffffffc0200134:	60a2                	ld	ra,8(sp)
ffffffffc0200136:	0141                	addi	sp,sp,16
ffffffffc0200138:	8082                	ret

ffffffffc020013a <__panic>:
 * __panic - __panic is called on unresolvable fatal errors. it prints
 * "panic: 'message'", and then enters the kernel monitor.
 * */
void
__panic(const char *file, int line, const char *fmt, ...) {
    if (is_panic) {
ffffffffc020013a:	00006317          	auipc	t1,0x6
ffffffffc020013e:	2ee30313          	addi	t1,t1,750 # ffffffffc0206428 <is_panic>
ffffffffc0200142:	00032e03          	lw	t3,0(t1)
__panic(const char *file, int line, const char *fmt, ...) {
ffffffffc0200146:	715d                	addi	sp,sp,-80
ffffffffc0200148:	ec06                	sd	ra,24(sp)
ffffffffc020014a:	e822                	sd	s0,16(sp)
ffffffffc020014c:	f436                	sd	a3,40(sp)
ffffffffc020014e:	f83a                	sd	a4,48(sp)
ffffffffc0200150:	fc3e                	sd	a5,56(sp)
ffffffffc0200152:	e0c2                	sd	a6,64(sp)
ffffffffc0200154:	e4c6                	sd	a7,72(sp)
    if (is_panic) {
ffffffffc0200156:	020e1a63          	bnez	t3,ffffffffc020018a <__panic+0x50>
        goto panic_dead;
    }
    is_panic = 1;
ffffffffc020015a:	4785                	li	a5,1
ffffffffc020015c:	00f32023          	sw	a5,0(t1)

    // print the 'message'
    va_list ap;
    va_start(ap, fmt);
ffffffffc0200160:	8432                	mv	s0,a2
ffffffffc0200162:	103c                	addi	a5,sp,40
    cprintf("kernel panic at %s:%d:\n    ", file, line);
ffffffffc0200164:	862e                	mv	a2,a1
ffffffffc0200166:	85aa                	mv	a1,a0
ffffffffc0200168:	00002517          	auipc	a0,0x2
ffffffffc020016c:	86850513          	addi	a0,a0,-1944 # ffffffffc02019d0 <etext+0x24>
    va_start(ap, fmt);
ffffffffc0200170:	e43e                	sd	a5,8(sp)
    cprintf("kernel panic at %s:%d:\n    ", file, line);
ffffffffc0200172:	f41ff0ef          	jal	ra,ffffffffc02000b2 <cprintf>
    vcprintf(fmt, ap);
ffffffffc0200176:	65a2                	ld	a1,8(sp)
ffffffffc0200178:	8522                	mv	a0,s0
ffffffffc020017a:	f19ff0ef          	jal	ra,ffffffffc0200092 <vcprintf>
    cprintf("\n");
ffffffffc020017e:	00002517          	auipc	a0,0x2
ffffffffc0200182:	93a50513          	addi	a0,a0,-1734 # ffffffffc0201ab8 <etext+0x10c>
ffffffffc0200186:	f2dff0ef          	jal	ra,ffffffffc02000b2 <cprintf>
    va_end(ap);

panic_dead:
    intr_disable();
ffffffffc020018a:	2d4000ef          	jal	ra,ffffffffc020045e <intr_disable>
    while (1) {
        kmonitor(NULL);
ffffffffc020018e:	4501                	li	a0,0
ffffffffc0200190:	130000ef          	jal	ra,ffffffffc02002c0 <kmonitor>
    while (1) {
ffffffffc0200194:	bfed                	j	ffffffffc020018e <__panic+0x54>

ffffffffc0200196 <print_kerninfo>:
/* *
 * print_kerninfo - print the information about kernel, including the location
 * of kernel entry, the start addresses of data and text segements, the start
 * address of free memory and how many memory that kernel has used.
 * */
void print_kerninfo(void) {
ffffffffc0200196:	1141                	addi	sp,sp,-16
    extern char etext[], edata[], end[], kern_init[];
    cprintf("Special kernel symbols:\n");
ffffffffc0200198:	00002517          	auipc	a0,0x2
ffffffffc020019c:	85850513          	addi	a0,a0,-1960 # ffffffffc02019f0 <etext+0x44>
void print_kerninfo(void) {
ffffffffc02001a0:	e406                	sd	ra,8(sp)
    cprintf("Special kernel symbols:\n");
ffffffffc02001a2:	f11ff0ef          	jal	ra,ffffffffc02000b2 <cprintf>
    cprintf("  entry  0x%016lx (virtual)\n", kern_init);
ffffffffc02001a6:	00000597          	auipc	a1,0x0
ffffffffc02001aa:	e8c58593          	addi	a1,a1,-372 # ffffffffc0200032 <kern_init>
ffffffffc02001ae:	00002517          	auipc	a0,0x2
ffffffffc02001b2:	86250513          	addi	a0,a0,-1950 # ffffffffc0201a10 <etext+0x64>
ffffffffc02001b6:	efdff0ef          	jal	ra,ffffffffc02000b2 <cprintf>
    cprintf("  etext  0x%016lx (virtual)\n", etext);
ffffffffc02001ba:	00001597          	auipc	a1,0x1
ffffffffc02001be:	7f258593          	addi	a1,a1,2034 # ffffffffc02019ac <etext>
ffffffffc02001c2:	00002517          	auipc	a0,0x2
ffffffffc02001c6:	86e50513          	addi	a0,a0,-1938 # ffffffffc0201a30 <etext+0x84>
ffffffffc02001ca:	ee9ff0ef          	jal	ra,ffffffffc02000b2 <cprintf>
    cprintf("  edata  0x%016lx (virtual)\n", edata);
ffffffffc02001ce:	00006597          	auipc	a1,0x6
ffffffffc02001d2:	e4258593          	addi	a1,a1,-446 # ffffffffc0206010 <free_area>
ffffffffc02001d6:	00002517          	auipc	a0,0x2
ffffffffc02001da:	87a50513          	addi	a0,a0,-1926 # ffffffffc0201a50 <etext+0xa4>
ffffffffc02001de:	ed5ff0ef          	jal	ra,ffffffffc02000b2 <cprintf>
    cprintf("  end    0x%016lx (virtual)\n", end);
ffffffffc02001e2:	00006597          	auipc	a1,0x6
ffffffffc02001e6:	28e58593          	addi	a1,a1,654 # ffffffffc0206470 <end>
ffffffffc02001ea:	00002517          	auipc	a0,0x2
ffffffffc02001ee:	88650513          	addi	a0,a0,-1914 # ffffffffc0201a70 <etext+0xc4>
ffffffffc02001f2:	ec1ff0ef          	jal	ra,ffffffffc02000b2 <cprintf>
    cprintf("Kernel executable memory footprint: %dKB\n",
            (end - kern_init + 1023) / 1024);
ffffffffc02001f6:	00006597          	auipc	a1,0x6
ffffffffc02001fa:	67958593          	addi	a1,a1,1657 # ffffffffc020686f <end+0x3ff>
ffffffffc02001fe:	00000797          	auipc	a5,0x0
ffffffffc0200202:	e3478793          	addi	a5,a5,-460 # ffffffffc0200032 <kern_init>
ffffffffc0200206:	40f587b3          	sub	a5,a1,a5
    cprintf("Kernel executable memory footprint: %dKB\n",
ffffffffc020020a:	43f7d593          	srai	a1,a5,0x3f
}
ffffffffc020020e:	60a2                	ld	ra,8(sp)
    cprintf("Kernel executable memory footprint: %dKB\n",
ffffffffc0200210:	3ff5f593          	andi	a1,a1,1023
ffffffffc0200214:	95be                	add	a1,a1,a5
ffffffffc0200216:	85a9                	srai	a1,a1,0xa
ffffffffc0200218:	00002517          	auipc	a0,0x2
ffffffffc020021c:	87850513          	addi	a0,a0,-1928 # ffffffffc0201a90 <etext+0xe4>
}
ffffffffc0200220:	0141                	addi	sp,sp,16
    cprintf("Kernel executable memory footprint: %dKB\n",
ffffffffc0200222:	bd41                	j	ffffffffc02000b2 <cprintf>

ffffffffc0200224 <print_stackframe>:
 * Note that, the length of ebp-chain is limited. In boot/bootasm.S, before
 * jumping
 * to the kernel entry, the value of ebp has been set to zero, that's the
 * boundary.
 * */
void print_stackframe(void) {
ffffffffc0200224:	1141                	addi	sp,sp,-16

    panic("Not Implemented!");
ffffffffc0200226:	00002617          	auipc	a2,0x2
ffffffffc020022a:	89a60613          	addi	a2,a2,-1894 # ffffffffc0201ac0 <etext+0x114>
ffffffffc020022e:	04e00593          	li	a1,78
ffffffffc0200232:	00002517          	auipc	a0,0x2
ffffffffc0200236:	8a650513          	addi	a0,a0,-1882 # ffffffffc0201ad8 <etext+0x12c>
void print_stackframe(void) {
ffffffffc020023a:	e406                	sd	ra,8(sp)
    panic("Not Implemented!");
ffffffffc020023c:	effff0ef          	jal	ra,ffffffffc020013a <__panic>

ffffffffc0200240 <mon_help>:
    }
}

/* mon_help - print the information about mon_* functions */
int
mon_help(int argc, char **argv, struct trapframe *tf) {
ffffffffc0200240:	1141                	addi	sp,sp,-16
    int i;
    for (i = 0; i < NCOMMANDS; i ++) {
        cprintf("%s - %s\n", commands[i].name, commands[i].desc);
ffffffffc0200242:	00002617          	auipc	a2,0x2
ffffffffc0200246:	8ae60613          	addi	a2,a2,-1874 # ffffffffc0201af0 <etext+0x144>
ffffffffc020024a:	00002597          	auipc	a1,0x2
ffffffffc020024e:	8c658593          	addi	a1,a1,-1850 # ffffffffc0201b10 <etext+0x164>
ffffffffc0200252:	00002517          	auipc	a0,0x2
ffffffffc0200256:	8c650513          	addi	a0,a0,-1850 # ffffffffc0201b18 <etext+0x16c>
mon_help(int argc, char **argv, struct trapframe *tf) {
ffffffffc020025a:	e406                	sd	ra,8(sp)
        cprintf("%s - %s\n", commands[i].name, commands[i].desc);
ffffffffc020025c:	e57ff0ef          	jal	ra,ffffffffc02000b2 <cprintf>
ffffffffc0200260:	00002617          	auipc	a2,0x2
ffffffffc0200264:	8c860613          	addi	a2,a2,-1848 # ffffffffc0201b28 <etext+0x17c>
ffffffffc0200268:	00002597          	auipc	a1,0x2
ffffffffc020026c:	8e858593          	addi	a1,a1,-1816 # ffffffffc0201b50 <etext+0x1a4>
ffffffffc0200270:	00002517          	auipc	a0,0x2
ffffffffc0200274:	8a850513          	addi	a0,a0,-1880 # ffffffffc0201b18 <etext+0x16c>
ffffffffc0200278:	e3bff0ef          	jal	ra,ffffffffc02000b2 <cprintf>
ffffffffc020027c:	00002617          	auipc	a2,0x2
ffffffffc0200280:	8e460613          	addi	a2,a2,-1820 # ffffffffc0201b60 <etext+0x1b4>
ffffffffc0200284:	00002597          	auipc	a1,0x2
ffffffffc0200288:	8fc58593          	addi	a1,a1,-1796 # ffffffffc0201b80 <etext+0x1d4>
ffffffffc020028c:	00002517          	auipc	a0,0x2
ffffffffc0200290:	88c50513          	addi	a0,a0,-1908 # ffffffffc0201b18 <etext+0x16c>
ffffffffc0200294:	e1fff0ef          	jal	ra,ffffffffc02000b2 <cprintf>
    }
    return 0;
}
ffffffffc0200298:	60a2                	ld	ra,8(sp)
ffffffffc020029a:	4501                	li	a0,0
ffffffffc020029c:	0141                	addi	sp,sp,16
ffffffffc020029e:	8082                	ret

ffffffffc02002a0 <mon_kerninfo>:
/* *
 * mon_kerninfo - call print_kerninfo in kern/debug/kdebug.c to
 * print the memory occupancy in kernel.
 * */
int
mon_kerninfo(int argc, char **argv, struct trapframe *tf) {
ffffffffc02002a0:	1141                	addi	sp,sp,-16
ffffffffc02002a2:	e406                	sd	ra,8(sp)
    print_kerninfo();
ffffffffc02002a4:	ef3ff0ef          	jal	ra,ffffffffc0200196 <print_kerninfo>
    return 0;
}
ffffffffc02002a8:	60a2                	ld	ra,8(sp)
ffffffffc02002aa:	4501                	li	a0,0
ffffffffc02002ac:	0141                	addi	sp,sp,16
ffffffffc02002ae:	8082                	ret

ffffffffc02002b0 <mon_backtrace>:
/* *
 * mon_backtrace - call print_stackframe in kern/debug/kdebug.c to
 * print a backtrace of the stack.
 * */
int
mon_backtrace(int argc, char **argv, struct trapframe *tf) {
ffffffffc02002b0:	1141                	addi	sp,sp,-16
ffffffffc02002b2:	e406                	sd	ra,8(sp)
    print_stackframe();
ffffffffc02002b4:	f71ff0ef          	jal	ra,ffffffffc0200224 <print_stackframe>
    return 0;
}
ffffffffc02002b8:	60a2                	ld	ra,8(sp)
ffffffffc02002ba:	4501                	li	a0,0
ffffffffc02002bc:	0141                	addi	sp,sp,16
ffffffffc02002be:	8082                	ret

ffffffffc02002c0 <kmonitor>:
kmonitor(struct trapframe *tf) {
ffffffffc02002c0:	7115                	addi	sp,sp,-224
ffffffffc02002c2:	ed5e                	sd	s7,152(sp)
ffffffffc02002c4:	8baa                	mv	s7,a0
    cprintf("Welcome to the kernel debug monitor!!\n");
ffffffffc02002c6:	00002517          	auipc	a0,0x2
ffffffffc02002ca:	8ca50513          	addi	a0,a0,-1846 # ffffffffc0201b90 <etext+0x1e4>
kmonitor(struct trapframe *tf) {
ffffffffc02002ce:	ed86                	sd	ra,216(sp)
ffffffffc02002d0:	e9a2                	sd	s0,208(sp)
ffffffffc02002d2:	e5a6                	sd	s1,200(sp)
ffffffffc02002d4:	e1ca                	sd	s2,192(sp)
ffffffffc02002d6:	fd4e                	sd	s3,184(sp)
ffffffffc02002d8:	f952                	sd	s4,176(sp)
ffffffffc02002da:	f556                	sd	s5,168(sp)
ffffffffc02002dc:	f15a                	sd	s6,160(sp)
ffffffffc02002de:	e962                	sd	s8,144(sp)
ffffffffc02002e0:	e566                	sd	s9,136(sp)
ffffffffc02002e2:	e16a                	sd	s10,128(sp)
    cprintf("Welcome to the kernel debug monitor!!\n");
ffffffffc02002e4:	dcfff0ef          	jal	ra,ffffffffc02000b2 <cprintf>
    cprintf("Type 'help' for a list of commands.\n");
ffffffffc02002e8:	00002517          	auipc	a0,0x2
ffffffffc02002ec:	8d050513          	addi	a0,a0,-1840 # ffffffffc0201bb8 <etext+0x20c>
ffffffffc02002f0:	dc3ff0ef          	jal	ra,ffffffffc02000b2 <cprintf>
    if (tf != NULL) {
ffffffffc02002f4:	000b8563          	beqz	s7,ffffffffc02002fe <kmonitor+0x3e>
        print_trapframe(tf);
ffffffffc02002f8:	855e                	mv	a0,s7
ffffffffc02002fa:	348000ef          	jal	ra,ffffffffc0200642 <print_trapframe>
ffffffffc02002fe:	00002c17          	auipc	s8,0x2
ffffffffc0200302:	92ac0c13          	addi	s8,s8,-1750 # ffffffffc0201c28 <commands>
        if ((buf = readline("K> ")) != NULL) {
ffffffffc0200306:	00002917          	auipc	s2,0x2
ffffffffc020030a:	8da90913          	addi	s2,s2,-1830 # ffffffffc0201be0 <etext+0x234>
        while (*buf != '\0' && strchr(WHITESPACE, *buf) != NULL) {
ffffffffc020030e:	00002497          	auipc	s1,0x2
ffffffffc0200312:	8da48493          	addi	s1,s1,-1830 # ffffffffc0201be8 <etext+0x23c>
        if (argc == MAXARGS - 1) {
ffffffffc0200316:	49bd                	li	s3,15
            cprintf("Too many arguments (max %d).\n", MAXARGS);
ffffffffc0200318:	00002b17          	auipc	s6,0x2
ffffffffc020031c:	8d8b0b13          	addi	s6,s6,-1832 # ffffffffc0201bf0 <etext+0x244>
        argv[argc ++] = buf;
ffffffffc0200320:	00001a17          	auipc	s4,0x1
ffffffffc0200324:	7f0a0a13          	addi	s4,s4,2032 # ffffffffc0201b10 <etext+0x164>
    for (i = 0; i < NCOMMANDS; i ++) {
ffffffffc0200328:	4a8d                	li	s5,3
        if ((buf = readline("K> ")) != NULL) {
ffffffffc020032a:	854a                	mv	a0,s2
ffffffffc020032c:	57c010ef          	jal	ra,ffffffffc02018a8 <readline>
ffffffffc0200330:	842a                	mv	s0,a0
ffffffffc0200332:	dd65                	beqz	a0,ffffffffc020032a <kmonitor+0x6a>
        while (*buf != '\0' && strchr(WHITESPACE, *buf) != NULL) {
ffffffffc0200334:	00054583          	lbu	a1,0(a0)
    int argc = 0;
ffffffffc0200338:	4c81                	li	s9,0
        while (*buf != '\0' && strchr(WHITESPACE, *buf) != NULL) {
ffffffffc020033a:	e1bd                	bnez	a1,ffffffffc02003a0 <kmonitor+0xe0>
    if (argc == 0) {
ffffffffc020033c:	fe0c87e3          	beqz	s9,ffffffffc020032a <kmonitor+0x6a>
        if (strcmp(commands[i].name, argv[0]) == 0) {
ffffffffc0200340:	6582                	ld	a1,0(sp)
ffffffffc0200342:	00002d17          	auipc	s10,0x2
ffffffffc0200346:	8e6d0d13          	addi	s10,s10,-1818 # ffffffffc0201c28 <commands>
        argv[argc ++] = buf;
ffffffffc020034a:	8552                	mv	a0,s4
    for (i = 0; i < NCOMMANDS; i ++) {
ffffffffc020034c:	4401                	li	s0,0
ffffffffc020034e:	0d61                	addi	s10,s10,24
        if (strcmp(commands[i].name, argv[0]) == 0) {
ffffffffc0200350:	124010ef          	jal	ra,ffffffffc0201474 <strcmp>
ffffffffc0200354:	c919                	beqz	a0,ffffffffc020036a <kmonitor+0xaa>
    for (i = 0; i < NCOMMANDS; i ++) {
ffffffffc0200356:	2405                	addiw	s0,s0,1
ffffffffc0200358:	0b540063          	beq	s0,s5,ffffffffc02003f8 <kmonitor+0x138>
        if (strcmp(commands[i].name, argv[0]) == 0) {
ffffffffc020035c:	000d3503          	ld	a0,0(s10)
ffffffffc0200360:	6582                	ld	a1,0(sp)
    for (i = 0; i < NCOMMANDS; i ++) {
ffffffffc0200362:	0d61                	addi	s10,s10,24
        if (strcmp(commands[i].name, argv[0]) == 0) {
ffffffffc0200364:	110010ef          	jal	ra,ffffffffc0201474 <strcmp>
ffffffffc0200368:	f57d                	bnez	a0,ffffffffc0200356 <kmonitor+0x96>
            return commands[i].func(argc - 1, argv + 1, tf);
ffffffffc020036a:	00141793          	slli	a5,s0,0x1
ffffffffc020036e:	97a2                	add	a5,a5,s0
ffffffffc0200370:	078e                	slli	a5,a5,0x3
ffffffffc0200372:	97e2                	add	a5,a5,s8
ffffffffc0200374:	6b9c                	ld	a5,16(a5)
ffffffffc0200376:	865e                	mv	a2,s7
ffffffffc0200378:	002c                	addi	a1,sp,8
ffffffffc020037a:	fffc851b          	addiw	a0,s9,-1
ffffffffc020037e:	9782                	jalr	a5
            if (runcmd(buf, tf) < 0) {
ffffffffc0200380:	fa0555e3          	bgez	a0,ffffffffc020032a <kmonitor+0x6a>
}
ffffffffc0200384:	60ee                	ld	ra,216(sp)
ffffffffc0200386:	644e                	ld	s0,208(sp)
ffffffffc0200388:	64ae                	ld	s1,200(sp)
ffffffffc020038a:	690e                	ld	s2,192(sp)
ffffffffc020038c:	79ea                	ld	s3,184(sp)
ffffffffc020038e:	7a4a                	ld	s4,176(sp)
ffffffffc0200390:	7aaa                	ld	s5,168(sp)
ffffffffc0200392:	7b0a                	ld	s6,160(sp)
ffffffffc0200394:	6bea                	ld	s7,152(sp)
ffffffffc0200396:	6c4a                	ld	s8,144(sp)
ffffffffc0200398:	6caa                	ld	s9,136(sp)
ffffffffc020039a:	6d0a                	ld	s10,128(sp)
ffffffffc020039c:	612d                	addi	sp,sp,224
ffffffffc020039e:	8082                	ret
        while (*buf != '\0' && strchr(WHITESPACE, *buf) != NULL) {
ffffffffc02003a0:	8526                	mv	a0,s1
ffffffffc02003a2:	0f0010ef          	jal	ra,ffffffffc0201492 <strchr>
ffffffffc02003a6:	c901                	beqz	a0,ffffffffc02003b6 <kmonitor+0xf6>
ffffffffc02003a8:	00144583          	lbu	a1,1(s0)
            *buf ++ = '\0';
ffffffffc02003ac:	00040023          	sb	zero,0(s0)
ffffffffc02003b0:	0405                	addi	s0,s0,1
        while (*buf != '\0' && strchr(WHITESPACE, *buf) != NULL) {
ffffffffc02003b2:	d5c9                	beqz	a1,ffffffffc020033c <kmonitor+0x7c>
ffffffffc02003b4:	b7f5                	j	ffffffffc02003a0 <kmonitor+0xe0>
        if (*buf == '\0') {
ffffffffc02003b6:	00044783          	lbu	a5,0(s0)
ffffffffc02003ba:	d3c9                	beqz	a5,ffffffffc020033c <kmonitor+0x7c>
        if (argc == MAXARGS - 1) {
ffffffffc02003bc:	033c8963          	beq	s9,s3,ffffffffc02003ee <kmonitor+0x12e>
        argv[argc ++] = buf;
ffffffffc02003c0:	003c9793          	slli	a5,s9,0x3
ffffffffc02003c4:	0118                	addi	a4,sp,128
ffffffffc02003c6:	97ba                	add	a5,a5,a4
ffffffffc02003c8:	f887b023          	sd	s0,-128(a5)
        while (*buf != '\0' && strchr(WHITESPACE, *buf) == NULL) {
ffffffffc02003cc:	00044583          	lbu	a1,0(s0)
        argv[argc ++] = buf;
ffffffffc02003d0:	2c85                	addiw	s9,s9,1
        while (*buf != '\0' && strchr(WHITESPACE, *buf) == NULL) {
ffffffffc02003d2:	e591                	bnez	a1,ffffffffc02003de <kmonitor+0x11e>
ffffffffc02003d4:	b7b5                	j	ffffffffc0200340 <kmonitor+0x80>
ffffffffc02003d6:	00144583          	lbu	a1,1(s0)
            buf ++;
ffffffffc02003da:	0405                	addi	s0,s0,1
        while (*buf != '\0' && strchr(WHITESPACE, *buf) == NULL) {
ffffffffc02003dc:	d1a5                	beqz	a1,ffffffffc020033c <kmonitor+0x7c>
ffffffffc02003de:	8526                	mv	a0,s1
ffffffffc02003e0:	0b2010ef          	jal	ra,ffffffffc0201492 <strchr>
ffffffffc02003e4:	d96d                	beqz	a0,ffffffffc02003d6 <kmonitor+0x116>
        while (*buf != '\0' && strchr(WHITESPACE, *buf) != NULL) {
ffffffffc02003e6:	00044583          	lbu	a1,0(s0)
ffffffffc02003ea:	d9a9                	beqz	a1,ffffffffc020033c <kmonitor+0x7c>
ffffffffc02003ec:	bf55                	j	ffffffffc02003a0 <kmonitor+0xe0>
            cprintf("Too many arguments (max %d).\n", MAXARGS);
ffffffffc02003ee:	45c1                	li	a1,16
ffffffffc02003f0:	855a                	mv	a0,s6
ffffffffc02003f2:	cc1ff0ef          	jal	ra,ffffffffc02000b2 <cprintf>
ffffffffc02003f6:	b7e9                	j	ffffffffc02003c0 <kmonitor+0x100>
    cprintf("Unknown command '%s'\n", argv[0]);
ffffffffc02003f8:	6582                	ld	a1,0(sp)
ffffffffc02003fa:	00002517          	auipc	a0,0x2
ffffffffc02003fe:	81650513          	addi	a0,a0,-2026 # ffffffffc0201c10 <etext+0x264>
ffffffffc0200402:	cb1ff0ef          	jal	ra,ffffffffc02000b2 <cprintf>
    return 0;
ffffffffc0200406:	b715                	j	ffffffffc020032a <kmonitor+0x6a>

ffffffffc0200408 <clock_init>:

/* *
 * clock_init - initialize 8253 clock to interrupt 100 times per second,
 * and then enable IRQ_TIMER.
 * */
void clock_init(void) {
ffffffffc0200408:	1141                	addi	sp,sp,-16
ffffffffc020040a:	e406                	sd	ra,8(sp)
    // enable timer interrupt in sie
    set_csr(sie, MIP_STIP);
ffffffffc020040c:	02000793          	li	a5,32
ffffffffc0200410:	1047a7f3          	csrrs	a5,sie,a5
    __asm__ __volatile__("rdtime %0" : "=r"(n));
ffffffffc0200414:	c0102573          	rdtime	a0
    ticks = 0;

    cprintf("++ setup timer interrupts\n");
}

void clock_set_next_event(void) { sbi_set_timer(get_cycles() + timebase); }
ffffffffc0200418:	67e1                	lui	a5,0x18
ffffffffc020041a:	6a078793          	addi	a5,a5,1696 # 186a0 <kern_entry-0xffffffffc01e7960>
ffffffffc020041e:	953e                	add	a0,a0,a5
ffffffffc0200420:	556010ef          	jal	ra,ffffffffc0201976 <sbi_set_timer>
}
ffffffffc0200424:	60a2                	ld	ra,8(sp)
    ticks = 0;
ffffffffc0200426:	00006797          	auipc	a5,0x6
ffffffffc020042a:	0007b523          	sd	zero,10(a5) # ffffffffc0206430 <ticks>
    cprintf("++ setup timer interrupts\n");
ffffffffc020042e:	00002517          	auipc	a0,0x2
ffffffffc0200432:	84250513          	addi	a0,a0,-1982 # ffffffffc0201c70 <commands+0x48>
}
ffffffffc0200436:	0141                	addi	sp,sp,16
    cprintf("++ setup timer interrupts\n");
ffffffffc0200438:	b9ad                	j	ffffffffc02000b2 <cprintf>

ffffffffc020043a <clock_set_next_event>:
    __asm__ __volatile__("rdtime %0" : "=r"(n));
ffffffffc020043a:	c0102573          	rdtime	a0
void clock_set_next_event(void) { sbi_set_timer(get_cycles() + timebase); }
ffffffffc020043e:	67e1                	lui	a5,0x18
ffffffffc0200440:	6a078793          	addi	a5,a5,1696 # 186a0 <kern_entry-0xffffffffc01e7960>
ffffffffc0200444:	953e                	add	a0,a0,a5
ffffffffc0200446:	5300106f          	j	ffffffffc0201976 <sbi_set_timer>

ffffffffc020044a <cons_init>:

/* serial_intr - try to feed input characters from serial port */
void serial_intr(void) {}

/* cons_init - initializes the console devices */
void cons_init(void) {}
ffffffffc020044a:	8082                	ret

ffffffffc020044c <cons_putc>:

/* cons_putc - print a single character @c to console devices */
void cons_putc(int c) { sbi_console_putchar((unsigned char)c); }
ffffffffc020044c:	0ff57513          	zext.b	a0,a0
ffffffffc0200450:	50c0106f          	j	ffffffffc020195c <sbi_console_putchar>

ffffffffc0200454 <cons_getc>:
 * cons_getc - return the next input character from console,
 * or 0 if none waiting.
 * */
int cons_getc(void) {
    int c = 0;
    c = sbi_console_getchar();
ffffffffc0200454:	53c0106f          	j	ffffffffc0201990 <sbi_console_getchar>

ffffffffc0200458 <intr_enable>:
#include <intr.h>
#include <riscv.h>

/* intr_enable - enable irq interrupt */
void intr_enable(void) { set_csr(sstatus, SSTATUS_SIE); }
ffffffffc0200458:	100167f3          	csrrsi	a5,sstatus,2
ffffffffc020045c:	8082                	ret

ffffffffc020045e <intr_disable>:

/* intr_disable - disable irq interrupt */
void intr_disable(void) { clear_csr(sstatus, SSTATUS_SIE); }
ffffffffc020045e:	100177f3          	csrrci	a5,sstatus,2
ffffffffc0200462:	8082                	ret

ffffffffc0200464 <idt_init>:
     */

    extern void __alltraps(void);
    /* Set sup0 scratch register to 0, indicating to exception vector
       that we are presently executing in the kernel */
    write_csr(sscratch, 0);
ffffffffc0200464:	14005073          	csrwi	sscratch,0
    /* Set the exception vector address */
    write_csr(stvec, &__alltraps);
ffffffffc0200468:	00000797          	auipc	a5,0x0
ffffffffc020046c:	2e478793          	addi	a5,a5,740 # ffffffffc020074c <__alltraps>
ffffffffc0200470:	10579073          	csrw	stvec,a5
}
ffffffffc0200474:	8082                	ret

ffffffffc0200476 <print_regs>:
    cprintf("  badvaddr 0x%08x\n", tf->badvaddr);
    cprintf("  cause    0x%08x\n", tf->cause);
}

void print_regs(struct pushregs *gpr) {
    cprintf("  zero     0x%08x\n", gpr->zero);
ffffffffc0200476:	610c                	ld	a1,0(a0)
void print_regs(struct pushregs *gpr) {
ffffffffc0200478:	1141                	addi	sp,sp,-16
ffffffffc020047a:	e022                	sd	s0,0(sp)
ffffffffc020047c:	842a                	mv	s0,a0
    cprintf("  zero     0x%08x\n", gpr->zero);
ffffffffc020047e:	00002517          	auipc	a0,0x2
ffffffffc0200482:	81250513          	addi	a0,a0,-2030 # ffffffffc0201c90 <commands+0x68>
void print_regs(struct pushregs *gpr) {
ffffffffc0200486:	e406                	sd	ra,8(sp)
    cprintf("  zero     0x%08x\n", gpr->zero);
ffffffffc0200488:	c2bff0ef          	jal	ra,ffffffffc02000b2 <cprintf>
    cprintf("  ra       0x%08x\n", gpr->ra);
ffffffffc020048c:	640c                	ld	a1,8(s0)
ffffffffc020048e:	00002517          	auipc	a0,0x2
ffffffffc0200492:	81a50513          	addi	a0,a0,-2022 # ffffffffc0201ca8 <commands+0x80>
ffffffffc0200496:	c1dff0ef          	jal	ra,ffffffffc02000b2 <cprintf>
    cprintf("  sp       0x%08x\n", gpr->sp);
ffffffffc020049a:	680c                	ld	a1,16(s0)
ffffffffc020049c:	00002517          	auipc	a0,0x2
ffffffffc02004a0:	82450513          	addi	a0,a0,-2012 # ffffffffc0201cc0 <commands+0x98>
ffffffffc02004a4:	c0fff0ef          	jal	ra,ffffffffc02000b2 <cprintf>
    cprintf("  gp       0x%08x\n", gpr->gp);
ffffffffc02004a8:	6c0c                	ld	a1,24(s0)
ffffffffc02004aa:	00002517          	auipc	a0,0x2
ffffffffc02004ae:	82e50513          	addi	a0,a0,-2002 # ffffffffc0201cd8 <commands+0xb0>
ffffffffc02004b2:	c01ff0ef          	jal	ra,ffffffffc02000b2 <cprintf>
    cprintf("  tp       0x%08x\n", gpr->tp);
ffffffffc02004b6:	700c                	ld	a1,32(s0)
ffffffffc02004b8:	00002517          	auipc	a0,0x2
ffffffffc02004bc:	83850513          	addi	a0,a0,-1992 # ffffffffc0201cf0 <commands+0xc8>
ffffffffc02004c0:	bf3ff0ef          	jal	ra,ffffffffc02000b2 <cprintf>
    cprintf("  t0       0x%08x\n", gpr->t0);
ffffffffc02004c4:	740c                	ld	a1,40(s0)
ffffffffc02004c6:	00002517          	auipc	a0,0x2
ffffffffc02004ca:	84250513          	addi	a0,a0,-1982 # ffffffffc0201d08 <commands+0xe0>
ffffffffc02004ce:	be5ff0ef          	jal	ra,ffffffffc02000b2 <cprintf>
    cprintf("  t1       0x%08x\n", gpr->t1);
ffffffffc02004d2:	780c                	ld	a1,48(s0)
ffffffffc02004d4:	00002517          	auipc	a0,0x2
ffffffffc02004d8:	84c50513          	addi	a0,a0,-1972 # ffffffffc0201d20 <commands+0xf8>
ffffffffc02004dc:	bd7ff0ef          	jal	ra,ffffffffc02000b2 <cprintf>
    cprintf("  t2       0x%08x\n", gpr->t2);
ffffffffc02004e0:	7c0c                	ld	a1,56(s0)
ffffffffc02004e2:	00002517          	auipc	a0,0x2
ffffffffc02004e6:	85650513          	addi	a0,a0,-1962 # ffffffffc0201d38 <commands+0x110>
ffffffffc02004ea:	bc9ff0ef          	jal	ra,ffffffffc02000b2 <cprintf>
    cprintf("  s0       0x%08x\n", gpr->s0);
ffffffffc02004ee:	602c                	ld	a1,64(s0)
ffffffffc02004f0:	00002517          	auipc	a0,0x2
ffffffffc02004f4:	86050513          	addi	a0,a0,-1952 # ffffffffc0201d50 <commands+0x128>
ffffffffc02004f8:	bbbff0ef          	jal	ra,ffffffffc02000b2 <cprintf>
    cprintf("  s1       0x%08x\n", gpr->s1);
ffffffffc02004fc:	642c                	ld	a1,72(s0)
ffffffffc02004fe:	00002517          	auipc	a0,0x2
ffffffffc0200502:	86a50513          	addi	a0,a0,-1942 # ffffffffc0201d68 <commands+0x140>
ffffffffc0200506:	badff0ef          	jal	ra,ffffffffc02000b2 <cprintf>
    cprintf("  a0       0x%08x\n", gpr->a0);
ffffffffc020050a:	682c                	ld	a1,80(s0)
ffffffffc020050c:	00002517          	auipc	a0,0x2
ffffffffc0200510:	87450513          	addi	a0,a0,-1932 # ffffffffc0201d80 <commands+0x158>
ffffffffc0200514:	b9fff0ef          	jal	ra,ffffffffc02000b2 <cprintf>
    cprintf("  a1       0x%08x\n", gpr->a1);
ffffffffc0200518:	6c2c                	ld	a1,88(s0)
ffffffffc020051a:	00002517          	auipc	a0,0x2
ffffffffc020051e:	87e50513          	addi	a0,a0,-1922 # ffffffffc0201d98 <commands+0x170>
ffffffffc0200522:	b91ff0ef          	jal	ra,ffffffffc02000b2 <cprintf>
    cprintf("  a2       0x%08x\n", gpr->a2);
ffffffffc0200526:	702c                	ld	a1,96(s0)
ffffffffc0200528:	00002517          	auipc	a0,0x2
ffffffffc020052c:	88850513          	addi	a0,a0,-1912 # ffffffffc0201db0 <commands+0x188>
ffffffffc0200530:	b83ff0ef          	jal	ra,ffffffffc02000b2 <cprintf>
    cprintf("  a3       0x%08x\n", gpr->a3);
ffffffffc0200534:	742c                	ld	a1,104(s0)
ffffffffc0200536:	00002517          	auipc	a0,0x2
ffffffffc020053a:	89250513          	addi	a0,a0,-1902 # ffffffffc0201dc8 <commands+0x1a0>
ffffffffc020053e:	b75ff0ef          	jal	ra,ffffffffc02000b2 <cprintf>
    cprintf("  a4       0x%08x\n", gpr->a4);
ffffffffc0200542:	782c                	ld	a1,112(s0)
ffffffffc0200544:	00002517          	auipc	a0,0x2
ffffffffc0200548:	89c50513          	addi	a0,a0,-1892 # ffffffffc0201de0 <commands+0x1b8>
ffffffffc020054c:	b67ff0ef          	jal	ra,ffffffffc02000b2 <cprintf>
    cprintf("  a5       0x%08x\n", gpr->a5);
ffffffffc0200550:	7c2c                	ld	a1,120(s0)
ffffffffc0200552:	00002517          	auipc	a0,0x2
ffffffffc0200556:	8a650513          	addi	a0,a0,-1882 # ffffffffc0201df8 <commands+0x1d0>
ffffffffc020055a:	b59ff0ef          	jal	ra,ffffffffc02000b2 <cprintf>
    cprintf("  a6       0x%08x\n", gpr->a6);
ffffffffc020055e:	604c                	ld	a1,128(s0)
ffffffffc0200560:	00002517          	auipc	a0,0x2
ffffffffc0200564:	8b050513          	addi	a0,a0,-1872 # ffffffffc0201e10 <commands+0x1e8>
ffffffffc0200568:	b4bff0ef          	jal	ra,ffffffffc02000b2 <cprintf>
    cprintf("  a7       0x%08x\n", gpr->a7);
ffffffffc020056c:	644c                	ld	a1,136(s0)
ffffffffc020056e:	00002517          	auipc	a0,0x2
ffffffffc0200572:	8ba50513          	addi	a0,a0,-1862 # ffffffffc0201e28 <commands+0x200>
ffffffffc0200576:	b3dff0ef          	jal	ra,ffffffffc02000b2 <cprintf>
    cprintf("  s2       0x%08x\n", gpr->s2);
ffffffffc020057a:	684c                	ld	a1,144(s0)
ffffffffc020057c:	00002517          	auipc	a0,0x2
ffffffffc0200580:	8c450513          	addi	a0,a0,-1852 # ffffffffc0201e40 <commands+0x218>
ffffffffc0200584:	b2fff0ef          	jal	ra,ffffffffc02000b2 <cprintf>
    cprintf("  s3       0x%08x\n", gpr->s3);
ffffffffc0200588:	6c4c                	ld	a1,152(s0)
ffffffffc020058a:	00002517          	auipc	a0,0x2
ffffffffc020058e:	8ce50513          	addi	a0,a0,-1842 # ffffffffc0201e58 <commands+0x230>
ffffffffc0200592:	b21ff0ef          	jal	ra,ffffffffc02000b2 <cprintf>
    cprintf("  s4       0x%08x\n", gpr->s4);
ffffffffc0200596:	704c                	ld	a1,160(s0)
ffffffffc0200598:	00002517          	auipc	a0,0x2
ffffffffc020059c:	8d850513          	addi	a0,a0,-1832 # ffffffffc0201e70 <commands+0x248>
ffffffffc02005a0:	b13ff0ef          	jal	ra,ffffffffc02000b2 <cprintf>
    cprintf("  s5       0x%08x\n", gpr->s5);
ffffffffc02005a4:	744c                	ld	a1,168(s0)
ffffffffc02005a6:	00002517          	auipc	a0,0x2
ffffffffc02005aa:	8e250513          	addi	a0,a0,-1822 # ffffffffc0201e88 <commands+0x260>
ffffffffc02005ae:	b05ff0ef          	jal	ra,ffffffffc02000b2 <cprintf>
    cprintf("  s6       0x%08x\n", gpr->s6);
ffffffffc02005b2:	784c                	ld	a1,176(s0)
ffffffffc02005b4:	00002517          	auipc	a0,0x2
ffffffffc02005b8:	8ec50513          	addi	a0,a0,-1812 # ffffffffc0201ea0 <commands+0x278>
ffffffffc02005bc:	af7ff0ef          	jal	ra,ffffffffc02000b2 <cprintf>
    cprintf("  s7       0x%08x\n", gpr->s7);
ffffffffc02005c0:	7c4c                	ld	a1,184(s0)
ffffffffc02005c2:	00002517          	auipc	a0,0x2
ffffffffc02005c6:	8f650513          	addi	a0,a0,-1802 # ffffffffc0201eb8 <commands+0x290>
ffffffffc02005ca:	ae9ff0ef          	jal	ra,ffffffffc02000b2 <cprintf>
    cprintf("  s8       0x%08x\n", gpr->s8);
ffffffffc02005ce:	606c                	ld	a1,192(s0)
ffffffffc02005d0:	00002517          	auipc	a0,0x2
ffffffffc02005d4:	90050513          	addi	a0,a0,-1792 # ffffffffc0201ed0 <commands+0x2a8>
ffffffffc02005d8:	adbff0ef          	jal	ra,ffffffffc02000b2 <cprintf>
    cprintf("  s9       0x%08x\n", gpr->s9);
ffffffffc02005dc:	646c                	ld	a1,200(s0)
ffffffffc02005de:	00002517          	auipc	a0,0x2
ffffffffc02005e2:	90a50513          	addi	a0,a0,-1782 # ffffffffc0201ee8 <commands+0x2c0>
ffffffffc02005e6:	acdff0ef          	jal	ra,ffffffffc02000b2 <cprintf>
    cprintf("  s10      0x%08x\n", gpr->s10);
ffffffffc02005ea:	686c                	ld	a1,208(s0)
ffffffffc02005ec:	00002517          	auipc	a0,0x2
ffffffffc02005f0:	91450513          	addi	a0,a0,-1772 # ffffffffc0201f00 <commands+0x2d8>
ffffffffc02005f4:	abfff0ef          	jal	ra,ffffffffc02000b2 <cprintf>
    cprintf("  s11      0x%08x\n", gpr->s11);
ffffffffc02005f8:	6c6c                	ld	a1,216(s0)
ffffffffc02005fa:	00002517          	auipc	a0,0x2
ffffffffc02005fe:	91e50513          	addi	a0,a0,-1762 # ffffffffc0201f18 <commands+0x2f0>
ffffffffc0200602:	ab1ff0ef          	jal	ra,ffffffffc02000b2 <cprintf>
    cprintf("  t3       0x%08x\n", gpr->t3);
ffffffffc0200606:	706c                	ld	a1,224(s0)
ffffffffc0200608:	00002517          	auipc	a0,0x2
ffffffffc020060c:	92850513          	addi	a0,a0,-1752 # ffffffffc0201f30 <commands+0x308>
ffffffffc0200610:	aa3ff0ef          	jal	ra,ffffffffc02000b2 <cprintf>
    cprintf("  t4       0x%08x\n", gpr->t4);
ffffffffc0200614:	746c                	ld	a1,232(s0)
ffffffffc0200616:	00002517          	auipc	a0,0x2
ffffffffc020061a:	93250513          	addi	a0,a0,-1742 # ffffffffc0201f48 <commands+0x320>
ffffffffc020061e:	a95ff0ef          	jal	ra,ffffffffc02000b2 <cprintf>
    cprintf("  t5       0x%08x\n", gpr->t5);
ffffffffc0200622:	786c                	ld	a1,240(s0)
ffffffffc0200624:	00002517          	auipc	a0,0x2
ffffffffc0200628:	93c50513          	addi	a0,a0,-1732 # ffffffffc0201f60 <commands+0x338>
ffffffffc020062c:	a87ff0ef          	jal	ra,ffffffffc02000b2 <cprintf>
    cprintf("  t6       0x%08x\n", gpr->t6);
ffffffffc0200630:	7c6c                	ld	a1,248(s0)
}
ffffffffc0200632:	6402                	ld	s0,0(sp)
ffffffffc0200634:	60a2                	ld	ra,8(sp)
    cprintf("  t6       0x%08x\n", gpr->t6);
ffffffffc0200636:	00002517          	auipc	a0,0x2
ffffffffc020063a:	94250513          	addi	a0,a0,-1726 # ffffffffc0201f78 <commands+0x350>
}
ffffffffc020063e:	0141                	addi	sp,sp,16
    cprintf("  t6       0x%08x\n", gpr->t6);
ffffffffc0200640:	bc8d                	j	ffffffffc02000b2 <cprintf>

ffffffffc0200642 <print_trapframe>:
void print_trapframe(struct trapframe *tf) {
ffffffffc0200642:	1141                	addi	sp,sp,-16
ffffffffc0200644:	e022                	sd	s0,0(sp)
    cprintf("trapframe at %p\n", tf);
ffffffffc0200646:	85aa                	mv	a1,a0
void print_trapframe(struct trapframe *tf) {
ffffffffc0200648:	842a                	mv	s0,a0
    cprintf("trapframe at %p\n", tf);
ffffffffc020064a:	00002517          	auipc	a0,0x2
ffffffffc020064e:	94650513          	addi	a0,a0,-1722 # ffffffffc0201f90 <commands+0x368>
void print_trapframe(struct trapframe *tf) {
ffffffffc0200652:	e406                	sd	ra,8(sp)
    cprintf("trapframe at %p\n", tf);
ffffffffc0200654:	a5fff0ef          	jal	ra,ffffffffc02000b2 <cprintf>
    print_regs(&tf->gpr);
ffffffffc0200658:	8522                	mv	a0,s0
ffffffffc020065a:	e1dff0ef          	jal	ra,ffffffffc0200476 <print_regs>
    cprintf("  status   0x%08x\n", tf->status);
ffffffffc020065e:	10043583          	ld	a1,256(s0)
ffffffffc0200662:	00002517          	auipc	a0,0x2
ffffffffc0200666:	94650513          	addi	a0,a0,-1722 # ffffffffc0201fa8 <commands+0x380>
ffffffffc020066a:	a49ff0ef          	jal	ra,ffffffffc02000b2 <cprintf>
    cprintf("  epc      0x%08x\n", tf->epc);
ffffffffc020066e:	10843583          	ld	a1,264(s0)
ffffffffc0200672:	00002517          	auipc	a0,0x2
ffffffffc0200676:	94e50513          	addi	a0,a0,-1714 # ffffffffc0201fc0 <commands+0x398>
ffffffffc020067a:	a39ff0ef          	jal	ra,ffffffffc02000b2 <cprintf>
    cprintf("  badvaddr 0x%08x\n", tf->badvaddr);
ffffffffc020067e:	11043583          	ld	a1,272(s0)
ffffffffc0200682:	00002517          	auipc	a0,0x2
ffffffffc0200686:	95650513          	addi	a0,a0,-1706 # ffffffffc0201fd8 <commands+0x3b0>
ffffffffc020068a:	a29ff0ef          	jal	ra,ffffffffc02000b2 <cprintf>
    cprintf("  cause    0x%08x\n", tf->cause);
ffffffffc020068e:	11843583          	ld	a1,280(s0)
}
ffffffffc0200692:	6402                	ld	s0,0(sp)
ffffffffc0200694:	60a2                	ld	ra,8(sp)
    cprintf("  cause    0x%08x\n", tf->cause);
ffffffffc0200696:	00002517          	auipc	a0,0x2
ffffffffc020069a:	95a50513          	addi	a0,a0,-1702 # ffffffffc0201ff0 <commands+0x3c8>
}
ffffffffc020069e:	0141                	addi	sp,sp,16
    cprintf("  cause    0x%08x\n", tf->cause);
ffffffffc02006a0:	bc09                	j	ffffffffc02000b2 <cprintf>

ffffffffc02006a2 <interrupt_handler>:

void interrupt_handler(struct trapframe *tf) {
    intptr_t cause = (tf->cause << 1) >> 1;
ffffffffc02006a2:	11853783          	ld	a5,280(a0)
ffffffffc02006a6:	472d                	li	a4,11
ffffffffc02006a8:	0786                	slli	a5,a5,0x1
ffffffffc02006aa:	8385                	srli	a5,a5,0x1
ffffffffc02006ac:	06f76c63          	bltu	a4,a5,ffffffffc0200724 <interrupt_handler+0x82>
ffffffffc02006b0:	00002717          	auipc	a4,0x2
ffffffffc02006b4:	a2070713          	addi	a4,a4,-1504 # ffffffffc02020d0 <commands+0x4a8>
ffffffffc02006b8:	078a                	slli	a5,a5,0x2
ffffffffc02006ba:	97ba                	add	a5,a5,a4
ffffffffc02006bc:	439c                	lw	a5,0(a5)
ffffffffc02006be:	97ba                	add	a5,a5,a4
ffffffffc02006c0:	8782                	jr	a5
            break;
        case IRQ_H_SOFT:
            cprintf("Hypervisor software interrupt\n");
            break;
        case IRQ_M_SOFT:
            cprintf("Machine software interrupt\n");
ffffffffc02006c2:	00002517          	auipc	a0,0x2
ffffffffc02006c6:	9a650513          	addi	a0,a0,-1626 # ffffffffc0202068 <commands+0x440>
ffffffffc02006ca:	b2e5                	j	ffffffffc02000b2 <cprintf>
            cprintf("Hypervisor software interrupt\n");
ffffffffc02006cc:	00002517          	auipc	a0,0x2
ffffffffc02006d0:	97c50513          	addi	a0,a0,-1668 # ffffffffc0202048 <commands+0x420>
ffffffffc02006d4:	baf9                	j	ffffffffc02000b2 <cprintf>
            cprintf("User software interrupt\n");
ffffffffc02006d6:	00002517          	auipc	a0,0x2
ffffffffc02006da:	93250513          	addi	a0,a0,-1742 # ffffffffc0202008 <commands+0x3e0>
ffffffffc02006de:	bad1                	j	ffffffffc02000b2 <cprintf>
            break;
        case IRQ_U_TIMER:
            cprintf("User Timer interrupt\n");
ffffffffc02006e0:	00002517          	auipc	a0,0x2
ffffffffc02006e4:	9a850513          	addi	a0,a0,-1624 # ffffffffc0202088 <commands+0x460>
ffffffffc02006e8:	b2e9                	j	ffffffffc02000b2 <cprintf>
void interrupt_handler(struct trapframe *tf) {
ffffffffc02006ea:	1141                	addi	sp,sp,-16
ffffffffc02006ec:	e406                	sd	ra,8(sp)
            // directly.
            // cprintf("Supervisor timer interrupt\n");
            // clear_csr(sip, SIP_STIP);
            // "sip寄存器中除了SSIP和USIP之外的所有位都是只读的。" 
	    // 实际上，调用sbi_set_timer函数将会清除STIP,或者你可以直接清除它。
            clock_set_next_event();
ffffffffc02006ee:	d4dff0ef          	jal	ra,ffffffffc020043a <clock_set_next_event>
            if (++ticks % TICK_NUM == 0) {
ffffffffc02006f2:	00006697          	auipc	a3,0x6
ffffffffc02006f6:	d3e68693          	addi	a3,a3,-706 # ffffffffc0206430 <ticks>
ffffffffc02006fa:	629c                	ld	a5,0(a3)
ffffffffc02006fc:	06400713          	li	a4,100
ffffffffc0200700:	0785                	addi	a5,a5,1
ffffffffc0200702:	02e7f733          	remu	a4,a5,a4
ffffffffc0200706:	e29c                	sd	a5,0(a3)
ffffffffc0200708:	cf19                	beqz	a4,ffffffffc0200726 <interrupt_handler+0x84>
            break;
        default:
            print_trapframe(tf);
            break;
    }
}
ffffffffc020070a:	60a2                	ld	ra,8(sp)
ffffffffc020070c:	0141                	addi	sp,sp,16
ffffffffc020070e:	8082                	ret
            cprintf("Supervisor external interrupt\n");
ffffffffc0200710:	00002517          	auipc	a0,0x2
ffffffffc0200714:	9a050513          	addi	a0,a0,-1632 # ffffffffc02020b0 <commands+0x488>
ffffffffc0200718:	ba69                	j	ffffffffc02000b2 <cprintf>
            cprintf("Supervisor software interrupt\n");
ffffffffc020071a:	00002517          	auipc	a0,0x2
ffffffffc020071e:	90e50513          	addi	a0,a0,-1778 # ffffffffc0202028 <commands+0x400>
ffffffffc0200722:	ba41                	j	ffffffffc02000b2 <cprintf>
            print_trapframe(tf);
ffffffffc0200724:	bf39                	j	ffffffffc0200642 <print_trapframe>
}
ffffffffc0200726:	60a2                	ld	ra,8(sp)
    cprintf("%d ticks\n", TICK_NUM);
ffffffffc0200728:	06400593          	li	a1,100
ffffffffc020072c:	00002517          	auipc	a0,0x2
ffffffffc0200730:	97450513          	addi	a0,a0,-1676 # ffffffffc02020a0 <commands+0x478>
}
ffffffffc0200734:	0141                	addi	sp,sp,16
    cprintf("%d ticks\n", TICK_NUM);
ffffffffc0200736:	bab5                	j	ffffffffc02000b2 <cprintf>

ffffffffc0200738 <trap>:
            break;
    }
}

static inline void trap_dispatch(struct trapframe *tf) {
    if ((intptr_t)tf->cause < 0) {
ffffffffc0200738:	11853783          	ld	a5,280(a0)
ffffffffc020073c:	0007c763          	bltz	a5,ffffffffc020074a <trap+0x12>
    switch (tf->cause) {
ffffffffc0200740:	472d                	li	a4,11
ffffffffc0200742:	00f76363          	bltu	a4,a5,ffffffffc0200748 <trap+0x10>
 * trapframe and then uses the iret instruction to return from the exception.
 * */
void trap(struct trapframe *tf) {
    // dispatch based on what type of trap occurred
    trap_dispatch(tf);
}
ffffffffc0200746:	8082                	ret
            print_trapframe(tf);
ffffffffc0200748:	bded                	j	ffffffffc0200642 <print_trapframe>
        interrupt_handler(tf);
ffffffffc020074a:	bfa1                	j	ffffffffc02006a2 <interrupt_handler>

ffffffffc020074c <__alltraps>:
    .endm

    .globl __alltraps
    .align(2)
__alltraps:
    SAVE_ALL
ffffffffc020074c:	14011073          	csrw	sscratch,sp
ffffffffc0200750:	712d                	addi	sp,sp,-288
ffffffffc0200752:	e002                	sd	zero,0(sp)
ffffffffc0200754:	e406                	sd	ra,8(sp)
ffffffffc0200756:	ec0e                	sd	gp,24(sp)
ffffffffc0200758:	f012                	sd	tp,32(sp)
ffffffffc020075a:	f416                	sd	t0,40(sp)
ffffffffc020075c:	f81a                	sd	t1,48(sp)
ffffffffc020075e:	fc1e                	sd	t2,56(sp)
ffffffffc0200760:	e0a2                	sd	s0,64(sp)
ffffffffc0200762:	e4a6                	sd	s1,72(sp)
ffffffffc0200764:	e8aa                	sd	a0,80(sp)
ffffffffc0200766:	ecae                	sd	a1,88(sp)
ffffffffc0200768:	f0b2                	sd	a2,96(sp)
ffffffffc020076a:	f4b6                	sd	a3,104(sp)
ffffffffc020076c:	f8ba                	sd	a4,112(sp)
ffffffffc020076e:	fcbe                	sd	a5,120(sp)
ffffffffc0200770:	e142                	sd	a6,128(sp)
ffffffffc0200772:	e546                	sd	a7,136(sp)
ffffffffc0200774:	e94a                	sd	s2,144(sp)
ffffffffc0200776:	ed4e                	sd	s3,152(sp)
ffffffffc0200778:	f152                	sd	s4,160(sp)
ffffffffc020077a:	f556                	sd	s5,168(sp)
ffffffffc020077c:	f95a                	sd	s6,176(sp)
ffffffffc020077e:	fd5e                	sd	s7,184(sp)
ffffffffc0200780:	e1e2                	sd	s8,192(sp)
ffffffffc0200782:	e5e6                	sd	s9,200(sp)
ffffffffc0200784:	e9ea                	sd	s10,208(sp)
ffffffffc0200786:	edee                	sd	s11,216(sp)
ffffffffc0200788:	f1f2                	sd	t3,224(sp)
ffffffffc020078a:	f5f6                	sd	t4,232(sp)
ffffffffc020078c:	f9fa                	sd	t5,240(sp)
ffffffffc020078e:	fdfe                	sd	t6,248(sp)
ffffffffc0200790:	14001473          	csrrw	s0,sscratch,zero
ffffffffc0200794:	100024f3          	csrr	s1,sstatus
ffffffffc0200798:	14102973          	csrr	s2,sepc
ffffffffc020079c:	143029f3          	csrr	s3,stval
ffffffffc02007a0:	14202a73          	csrr	s4,scause
ffffffffc02007a4:	e822                	sd	s0,16(sp)
ffffffffc02007a6:	e226                	sd	s1,256(sp)
ffffffffc02007a8:	e64a                	sd	s2,264(sp)
ffffffffc02007aa:	ea4e                	sd	s3,272(sp)
ffffffffc02007ac:	ee52                	sd	s4,280(sp)

    move  a0, sp
ffffffffc02007ae:	850a                	mv	a0,sp
    jal trap
ffffffffc02007b0:	f89ff0ef          	jal	ra,ffffffffc0200738 <trap>

ffffffffc02007b4 <__trapret>:
    # sp should be the same as before "jal trap"

    .globl __trapret
__trapret:
    RESTORE_ALL
ffffffffc02007b4:	6492                	ld	s1,256(sp)
ffffffffc02007b6:	6932                	ld	s2,264(sp)
ffffffffc02007b8:	10049073          	csrw	sstatus,s1
ffffffffc02007bc:	14191073          	csrw	sepc,s2
ffffffffc02007c0:	60a2                	ld	ra,8(sp)
ffffffffc02007c2:	61e2                	ld	gp,24(sp)
ffffffffc02007c4:	7202                	ld	tp,32(sp)
ffffffffc02007c6:	72a2                	ld	t0,40(sp)
ffffffffc02007c8:	7342                	ld	t1,48(sp)
ffffffffc02007ca:	73e2                	ld	t2,56(sp)
ffffffffc02007cc:	6406                	ld	s0,64(sp)
ffffffffc02007ce:	64a6                	ld	s1,72(sp)
ffffffffc02007d0:	6546                	ld	a0,80(sp)
ffffffffc02007d2:	65e6                	ld	a1,88(sp)
ffffffffc02007d4:	7606                	ld	a2,96(sp)
ffffffffc02007d6:	76a6                	ld	a3,104(sp)
ffffffffc02007d8:	7746                	ld	a4,112(sp)
ffffffffc02007da:	77e6                	ld	a5,120(sp)
ffffffffc02007dc:	680a                	ld	a6,128(sp)
ffffffffc02007de:	68aa                	ld	a7,136(sp)
ffffffffc02007e0:	694a                	ld	s2,144(sp)
ffffffffc02007e2:	69ea                	ld	s3,152(sp)
ffffffffc02007e4:	7a0a                	ld	s4,160(sp)
ffffffffc02007e6:	7aaa                	ld	s5,168(sp)
ffffffffc02007e8:	7b4a                	ld	s6,176(sp)
ffffffffc02007ea:	7bea                	ld	s7,184(sp)
ffffffffc02007ec:	6c0e                	ld	s8,192(sp)
ffffffffc02007ee:	6cae                	ld	s9,200(sp)
ffffffffc02007f0:	6d4e                	ld	s10,208(sp)
ffffffffc02007f2:	6dee                	ld	s11,216(sp)
ffffffffc02007f4:	7e0e                	ld	t3,224(sp)
ffffffffc02007f6:	7eae                	ld	t4,232(sp)
ffffffffc02007f8:	7f4e                	ld	t5,240(sp)
ffffffffc02007fa:	7fee                	ld	t6,248(sp)
ffffffffc02007fc:	6142                	ld	sp,16(sp)
    # return from supervisor call
    sret
ffffffffc02007fe:	10200073          	sret

ffffffffc0200802 <alloc_pages>:
#include <defs.h>
#include <intr.h>
#include <riscv.h>

static inline bool __intr_save(void) {
    if (read_csr(sstatus) & SSTATUS_SIE) {
ffffffffc0200802:	100027f3          	csrr	a5,sstatus
ffffffffc0200806:	8b89                	andi	a5,a5,2
ffffffffc0200808:	e799                	bnez	a5,ffffffffc0200816 <alloc_pages+0x14>
struct Page *alloc_pages(size_t n) {
    struct Page *page = NULL;
    bool intr_flag;
    local_intr_save(intr_flag);
    {
        page = pmm_manager->alloc_pages(n);
ffffffffc020080a:	00006797          	auipc	a5,0x6
ffffffffc020080e:	c3e7b783          	ld	a5,-962(a5) # ffffffffc0206448 <pmm_manager>
ffffffffc0200812:	6f9c                	ld	a5,24(a5)
ffffffffc0200814:	8782                	jr	a5
struct Page *alloc_pages(size_t n) {
ffffffffc0200816:	1141                	addi	sp,sp,-16
ffffffffc0200818:	e406                	sd	ra,8(sp)
ffffffffc020081a:	e022                	sd	s0,0(sp)
ffffffffc020081c:	842a                	mv	s0,a0
        intr_disable();
ffffffffc020081e:	c41ff0ef          	jal	ra,ffffffffc020045e <intr_disable>
        page = pmm_manager->alloc_pages(n);
ffffffffc0200822:	00006797          	auipc	a5,0x6
ffffffffc0200826:	c267b783          	ld	a5,-986(a5) # ffffffffc0206448 <pmm_manager>
ffffffffc020082a:	6f9c                	ld	a5,24(a5)
ffffffffc020082c:	8522                	mv	a0,s0
ffffffffc020082e:	9782                	jalr	a5
ffffffffc0200830:	842a                	mv	s0,a0
    return 0;
}

static inline void __intr_restore(bool flag) {
    if (flag) {
        intr_enable();
ffffffffc0200832:	c27ff0ef          	jal	ra,ffffffffc0200458 <intr_enable>
    }
    local_intr_restore(intr_flag);
    return page;
}
ffffffffc0200836:	60a2                	ld	ra,8(sp)
ffffffffc0200838:	8522                	mv	a0,s0
ffffffffc020083a:	6402                	ld	s0,0(sp)
ffffffffc020083c:	0141                	addi	sp,sp,16
ffffffffc020083e:	8082                	ret

ffffffffc0200840 <free_pages>:
    if (read_csr(sstatus) & SSTATUS_SIE) {
ffffffffc0200840:	100027f3          	csrr	a5,sstatus
ffffffffc0200844:	8b89                	andi	a5,a5,2
ffffffffc0200846:	e799                	bnez	a5,ffffffffc0200854 <free_pages+0x14>
// free_pages - call pmm->free_pages to free a continuous n*PAGESIZE memory
void free_pages(struct Page *base, size_t n) {
    bool intr_flag;
    local_intr_save(intr_flag);
    {
        pmm_manager->free_pages(base, n);
ffffffffc0200848:	00006797          	auipc	a5,0x6
ffffffffc020084c:	c007b783          	ld	a5,-1024(a5) # ffffffffc0206448 <pmm_manager>
ffffffffc0200850:	739c                	ld	a5,32(a5)
ffffffffc0200852:	8782                	jr	a5
void free_pages(struct Page *base, size_t n) {
ffffffffc0200854:	1101                	addi	sp,sp,-32
ffffffffc0200856:	ec06                	sd	ra,24(sp)
ffffffffc0200858:	e822                	sd	s0,16(sp)
ffffffffc020085a:	e426                	sd	s1,8(sp)
ffffffffc020085c:	842a                	mv	s0,a0
ffffffffc020085e:	84ae                	mv	s1,a1
        intr_disable();
ffffffffc0200860:	bffff0ef          	jal	ra,ffffffffc020045e <intr_disable>
        pmm_manager->free_pages(base, n);
ffffffffc0200864:	00006797          	auipc	a5,0x6
ffffffffc0200868:	be47b783          	ld	a5,-1052(a5) # ffffffffc0206448 <pmm_manager>
ffffffffc020086c:	739c                	ld	a5,32(a5)
ffffffffc020086e:	85a6                	mv	a1,s1
ffffffffc0200870:	8522                	mv	a0,s0
ffffffffc0200872:	9782                	jalr	a5
    }
    local_intr_restore(intr_flag);
}
ffffffffc0200874:	6442                	ld	s0,16(sp)
ffffffffc0200876:	60e2                	ld	ra,24(sp)
ffffffffc0200878:	64a2                	ld	s1,8(sp)
ffffffffc020087a:	6105                	addi	sp,sp,32
        intr_enable();
ffffffffc020087c:	bef1                	j	ffffffffc0200458 <intr_enable>

ffffffffc020087e <nr_free_pages>:
    if (read_csr(sstatus) & SSTATUS_SIE) {
ffffffffc020087e:	100027f3          	csrr	a5,sstatus
ffffffffc0200882:	8b89                	andi	a5,a5,2
ffffffffc0200884:	e799                	bnez	a5,ffffffffc0200892 <nr_free_pages+0x14>
size_t nr_free_pages(void) {
    size_t ret;
    bool intr_flag;
    local_intr_save(intr_flag);
    {
        ret = pmm_manager->nr_free_pages();
ffffffffc0200886:	00006797          	auipc	a5,0x6
ffffffffc020088a:	bc27b783          	ld	a5,-1086(a5) # ffffffffc0206448 <pmm_manager>
ffffffffc020088e:	779c                	ld	a5,40(a5)
ffffffffc0200890:	8782                	jr	a5
size_t nr_free_pages(void) {
ffffffffc0200892:	1141                	addi	sp,sp,-16
ffffffffc0200894:	e406                	sd	ra,8(sp)
ffffffffc0200896:	e022                	sd	s0,0(sp)
        intr_disable();
ffffffffc0200898:	bc7ff0ef          	jal	ra,ffffffffc020045e <intr_disable>
        ret = pmm_manager->nr_free_pages();
ffffffffc020089c:	00006797          	auipc	a5,0x6
ffffffffc02008a0:	bac7b783          	ld	a5,-1108(a5) # ffffffffc0206448 <pmm_manager>
ffffffffc02008a4:	779c                	ld	a5,40(a5)
ffffffffc02008a6:	9782                	jalr	a5
ffffffffc02008a8:	842a                	mv	s0,a0
        intr_enable();
ffffffffc02008aa:	bafff0ef          	jal	ra,ffffffffc0200458 <intr_enable>
    }
    local_intr_restore(intr_flag);
    return ret;
}
ffffffffc02008ae:	60a2                	ld	ra,8(sp)
ffffffffc02008b0:	8522                	mv	a0,s0
ffffffffc02008b2:	6402                	ld	s0,0(sp)
ffffffffc02008b4:	0141                	addi	sp,sp,16
ffffffffc02008b6:	8082                	ret

ffffffffc02008b8 <pmm_init>:
    pmm_manager = &best_fit_pmm_manager;
ffffffffc02008b8:	00002797          	auipc	a5,0x2
ffffffffc02008bc:	cb878793          	addi	a5,a5,-840 # ffffffffc0202570 <best_fit_pmm_manager>
    cprintf("memory management: %s\n", pmm_manager->name);
ffffffffc02008c0:	638c                	ld	a1,0(a5)
        init_memmap(pa2page(mem_begin), (mem_end - mem_begin) / PGSIZE);
    }
}

/* pmm_init - initialize the physical memory management */
void pmm_init(void) {
ffffffffc02008c2:	1101                	addi	sp,sp,-32
ffffffffc02008c4:	e426                	sd	s1,8(sp)
    cprintf("memory management: %s\n", pmm_manager->name);
ffffffffc02008c6:	00002517          	auipc	a0,0x2
ffffffffc02008ca:	83a50513          	addi	a0,a0,-1990 # ffffffffc0202100 <commands+0x4d8>
    pmm_manager = &best_fit_pmm_manager;
ffffffffc02008ce:	00006497          	auipc	s1,0x6
ffffffffc02008d2:	b7a48493          	addi	s1,s1,-1158 # ffffffffc0206448 <pmm_manager>
void pmm_init(void) {
ffffffffc02008d6:	ec06                	sd	ra,24(sp)
ffffffffc02008d8:	e822                	sd	s0,16(sp)
    pmm_manager = &best_fit_pmm_manager;
ffffffffc02008da:	e09c                	sd	a5,0(s1)
    cprintf("memory management: %s\n", pmm_manager->name);
ffffffffc02008dc:	fd6ff0ef          	jal	ra,ffffffffc02000b2 <cprintf>
    pmm_manager->init();
ffffffffc02008e0:	609c                	ld	a5,0(s1)
    va_pa_offset = PHYSICAL_MEMORY_OFFSET;
ffffffffc02008e2:	00006417          	auipc	s0,0x6
ffffffffc02008e6:	b7e40413          	addi	s0,s0,-1154 # ffffffffc0206460 <va_pa_offset>
    pmm_manager->init();
ffffffffc02008ea:	679c                	ld	a5,8(a5)
ffffffffc02008ec:	9782                	jalr	a5
    va_pa_offset = PHYSICAL_MEMORY_OFFSET;
ffffffffc02008ee:	57f5                	li	a5,-3
ffffffffc02008f0:	07fa                	slli	a5,a5,0x1e
    cprintf("physcial memory map:\n");
ffffffffc02008f2:	00002517          	auipc	a0,0x2
ffffffffc02008f6:	82650513          	addi	a0,a0,-2010 # ffffffffc0202118 <commands+0x4f0>
    va_pa_offset = PHYSICAL_MEMORY_OFFSET;
ffffffffc02008fa:	e01c                	sd	a5,0(s0)
    cprintf("physcial memory map:\n");
ffffffffc02008fc:	fb6ff0ef          	jal	ra,ffffffffc02000b2 <cprintf>
    cprintf("  memory: 0x%016lx, [0x%016lx, 0x%016lx].\n", mem_size, mem_begin,
ffffffffc0200900:	46c5                	li	a3,17
ffffffffc0200902:	06ee                	slli	a3,a3,0x1b
ffffffffc0200904:	40100613          	li	a2,1025
ffffffffc0200908:	16fd                	addi	a3,a3,-1
ffffffffc020090a:	07e005b7          	lui	a1,0x7e00
ffffffffc020090e:	0656                	slli	a2,a2,0x15
ffffffffc0200910:	00002517          	auipc	a0,0x2
ffffffffc0200914:	82050513          	addi	a0,a0,-2016 # ffffffffc0202130 <commands+0x508>
ffffffffc0200918:	f9aff0ef          	jal	ra,ffffffffc02000b2 <cprintf>
    pages = (struct Page *)ROUNDUP((void *)end, PGSIZE);
ffffffffc020091c:	777d                	lui	a4,0xfffff
ffffffffc020091e:	00007797          	auipc	a5,0x7
ffffffffc0200922:	b5178793          	addi	a5,a5,-1199 # ffffffffc020746f <end+0xfff>
ffffffffc0200926:	8ff9                	and	a5,a5,a4
    npage = maxpa / PGSIZE;
ffffffffc0200928:	00006517          	auipc	a0,0x6
ffffffffc020092c:	b1050513          	addi	a0,a0,-1264 # ffffffffc0206438 <npage>
ffffffffc0200930:	00088737          	lui	a4,0x88
    pages = (struct Page *)ROUNDUP((void *)end, PGSIZE);
ffffffffc0200934:	00006597          	auipc	a1,0x6
ffffffffc0200938:	b0c58593          	addi	a1,a1,-1268 # ffffffffc0206440 <pages>
    npage = maxpa / PGSIZE;
ffffffffc020093c:	e118                	sd	a4,0(a0)
    pages = (struct Page *)ROUNDUP((void *)end, PGSIZE);
ffffffffc020093e:	e19c                	sd	a5,0(a1)
ffffffffc0200940:	4681                	li	a3,0
    for (size_t i = 0; i < npage - nbase; i++) {
ffffffffc0200942:	4701                	li	a4,0
 *
 * Note that @nr may be almost arbitrarily large; this function is not
 * restricted to acting on a single-word quantity.
 * */
static inline void set_bit(int nr, volatile void *addr) {
    __op_bit(or, __NOP, nr, ((volatile unsigned long *)addr));
ffffffffc0200944:	4885                	li	a7,1
ffffffffc0200946:	fff80837          	lui	a6,0xfff80
ffffffffc020094a:	a011                	j	ffffffffc020094e <pmm_init+0x96>
        SetPageReserved(pages + i);
ffffffffc020094c:	619c                	ld	a5,0(a1)
ffffffffc020094e:	97b6                	add	a5,a5,a3
ffffffffc0200950:	07a1                	addi	a5,a5,8
ffffffffc0200952:	4117b02f          	amoor.d	zero,a7,(a5)
    for (size_t i = 0; i < npage - nbase; i++) {
ffffffffc0200956:	611c                	ld	a5,0(a0)
ffffffffc0200958:	0705                	addi	a4,a4,1
ffffffffc020095a:	02868693          	addi	a3,a3,40
ffffffffc020095e:	01078633          	add	a2,a5,a6
ffffffffc0200962:	fec765e3          	bltu	a4,a2,ffffffffc020094c <pmm_init+0x94>
    uintptr_t freemem = PADDR((uintptr_t)pages + sizeof(struct Page) * (npage - nbase));
ffffffffc0200966:	6190                	ld	a2,0(a1)
ffffffffc0200968:	00279713          	slli	a4,a5,0x2
ffffffffc020096c:	973e                	add	a4,a4,a5
ffffffffc020096e:	fec006b7          	lui	a3,0xfec00
ffffffffc0200972:	070e                	slli	a4,a4,0x3
ffffffffc0200974:	96b2                	add	a3,a3,a2
ffffffffc0200976:	96ba                	add	a3,a3,a4
ffffffffc0200978:	c0200737          	lui	a4,0xc0200
ffffffffc020097c:	08e6ef63          	bltu	a3,a4,ffffffffc0200a1a <pmm_init+0x162>
ffffffffc0200980:	6018                	ld	a4,0(s0)
    if (freemem < mem_end) {
ffffffffc0200982:	45c5                	li	a1,17
ffffffffc0200984:	05ee                	slli	a1,a1,0x1b
    uintptr_t freemem = PADDR((uintptr_t)pages + sizeof(struct Page) * (npage - nbase));
ffffffffc0200986:	8e99                	sub	a3,a3,a4
    if (freemem < mem_end) {
ffffffffc0200988:	04b6e863          	bltu	a3,a1,ffffffffc02009d8 <pmm_init+0x120>
    satp_physical = PADDR(satp_virtual);
    cprintf("satp virtual address: 0x%016lx\nsatp physical address: 0x%016lx\n", satp_virtual, satp_physical);
}

static void check_alloc_page(void) {
    pmm_manager->check();
ffffffffc020098c:	609c                	ld	a5,0(s1)
ffffffffc020098e:	7b9c                	ld	a5,48(a5)
ffffffffc0200990:	9782                	jalr	a5
    cprintf("check_alloc_page() succeeded!\n");
ffffffffc0200992:	00002517          	auipc	a0,0x2
ffffffffc0200996:	83650513          	addi	a0,a0,-1994 # ffffffffc02021c8 <commands+0x5a0>
ffffffffc020099a:	f18ff0ef          	jal	ra,ffffffffc02000b2 <cprintf>
    satp_virtual = (pte_t*)boot_page_table_sv39;
ffffffffc020099e:	00004597          	auipc	a1,0x4
ffffffffc02009a2:	66258593          	addi	a1,a1,1634 # ffffffffc0205000 <boot_page_table_sv39>
ffffffffc02009a6:	00006797          	auipc	a5,0x6
ffffffffc02009aa:	aab7b923          	sd	a1,-1358(a5) # ffffffffc0206458 <satp_virtual>
    satp_physical = PADDR(satp_virtual);
ffffffffc02009ae:	c02007b7          	lui	a5,0xc0200
ffffffffc02009b2:	08f5e063          	bltu	a1,a5,ffffffffc0200a32 <pmm_init+0x17a>
ffffffffc02009b6:	6010                	ld	a2,0(s0)
}
ffffffffc02009b8:	6442                	ld	s0,16(sp)
ffffffffc02009ba:	60e2                	ld	ra,24(sp)
ffffffffc02009bc:	64a2                	ld	s1,8(sp)
    satp_physical = PADDR(satp_virtual);
ffffffffc02009be:	40c58633          	sub	a2,a1,a2
ffffffffc02009c2:	00006797          	auipc	a5,0x6
ffffffffc02009c6:	a8c7b723          	sd	a2,-1394(a5) # ffffffffc0206450 <satp_physical>
    cprintf("satp virtual address: 0x%016lx\nsatp physical address: 0x%016lx\n", satp_virtual, satp_physical);
ffffffffc02009ca:	00002517          	auipc	a0,0x2
ffffffffc02009ce:	81e50513          	addi	a0,a0,-2018 # ffffffffc02021e8 <commands+0x5c0>
}
ffffffffc02009d2:	6105                	addi	sp,sp,32
    cprintf("satp virtual address: 0x%016lx\nsatp physical address: 0x%016lx\n", satp_virtual, satp_physical);
ffffffffc02009d4:	edeff06f          	j	ffffffffc02000b2 <cprintf>
    mem_begin = ROUNDUP(freemem, PGSIZE);
ffffffffc02009d8:	6705                	lui	a4,0x1
ffffffffc02009da:	177d                	addi	a4,a4,-1
ffffffffc02009dc:	96ba                	add	a3,a3,a4
ffffffffc02009de:	777d                	lui	a4,0xfffff
ffffffffc02009e0:	8ef9                	and	a3,a3,a4
static inline int page_ref_dec(struct Page *page) {
    page->ref -= 1;
    return page->ref;
}
static inline struct Page *pa2page(uintptr_t pa) {
    if (PPN(pa) >= npage) {
ffffffffc02009e2:	00c6d513          	srli	a0,a3,0xc
ffffffffc02009e6:	00f57e63          	bgeu	a0,a5,ffffffffc0200a02 <pmm_init+0x14a>
    pmm_manager->init_memmap(base, n);
ffffffffc02009ea:	609c                	ld	a5,0(s1)
        panic("pa2page called with invalid pa");
    }
    return &pages[PPN(pa) - nbase];
ffffffffc02009ec:	982a                	add	a6,a6,a0
ffffffffc02009ee:	00281513          	slli	a0,a6,0x2
ffffffffc02009f2:	9542                	add	a0,a0,a6
ffffffffc02009f4:	6b9c                	ld	a5,16(a5)
        init_memmap(pa2page(mem_begin), (mem_end - mem_begin) / PGSIZE);
ffffffffc02009f6:	8d95                	sub	a1,a1,a3
ffffffffc02009f8:	050e                	slli	a0,a0,0x3
    pmm_manager->init_memmap(base, n);
ffffffffc02009fa:	81b1                	srli	a1,a1,0xc
ffffffffc02009fc:	9532                	add	a0,a0,a2
ffffffffc02009fe:	9782                	jalr	a5
}
ffffffffc0200a00:	b771                	j	ffffffffc020098c <pmm_init+0xd4>
        panic("pa2page called with invalid pa");
ffffffffc0200a02:	00001617          	auipc	a2,0x1
ffffffffc0200a06:	79660613          	addi	a2,a2,1942 # ffffffffc0202198 <commands+0x570>
ffffffffc0200a0a:	06b00593          	li	a1,107
ffffffffc0200a0e:	00001517          	auipc	a0,0x1
ffffffffc0200a12:	7aa50513          	addi	a0,a0,1962 # ffffffffc02021b8 <commands+0x590>
ffffffffc0200a16:	f24ff0ef          	jal	ra,ffffffffc020013a <__panic>
    uintptr_t freemem = PADDR((uintptr_t)pages + sizeof(struct Page) * (npage - nbase));
ffffffffc0200a1a:	00001617          	auipc	a2,0x1
ffffffffc0200a1e:	74660613          	addi	a2,a2,1862 # ffffffffc0202160 <commands+0x538>
ffffffffc0200a22:	06e00593          	li	a1,110
ffffffffc0200a26:	00001517          	auipc	a0,0x1
ffffffffc0200a2a:	76250513          	addi	a0,a0,1890 # ffffffffc0202188 <commands+0x560>
ffffffffc0200a2e:	f0cff0ef          	jal	ra,ffffffffc020013a <__panic>
    satp_physical = PADDR(satp_virtual);
ffffffffc0200a32:	86ae                	mv	a3,a1
ffffffffc0200a34:	00001617          	auipc	a2,0x1
ffffffffc0200a38:	72c60613          	addi	a2,a2,1836 # ffffffffc0202160 <commands+0x538>
ffffffffc0200a3c:	08900593          	li	a1,137
ffffffffc0200a40:	00001517          	auipc	a0,0x1
ffffffffc0200a44:	74850513          	addi	a0,a0,1864 # ffffffffc0202188 <commands+0x560>
ffffffffc0200a48:	ef2ff0ef          	jal	ra,ffffffffc020013a <__panic>

ffffffffc0200a4c <best_fit_init>:
 * list_init - initialize a new entry
 * @elm:        new entry to be initialized
 * */
static inline void
list_init(list_entry_t *elm) {
    elm->prev = elm->next = elm;
ffffffffc0200a4c:	00005797          	auipc	a5,0x5
ffffffffc0200a50:	5c478793          	addi	a5,a5,1476 # ffffffffc0206010 <free_area>
ffffffffc0200a54:	e79c                	sd	a5,8(a5)
ffffffffc0200a56:	e39c                	sd	a5,0(a5)
#define nr_free (free_area.nr_free)

static void
best_fit_init(void) {
    list_init(&free_list);
    nr_free = 0;
ffffffffc0200a58:	0007a823          	sw	zero,16(a5)
}
ffffffffc0200a5c:	8082                	ret

ffffffffc0200a5e <best_fit_nr_free_pages>:
}

static size_t
best_fit_nr_free_pages(void) {
    return nr_free;
}
ffffffffc0200a5e:	00005517          	auipc	a0,0x5
ffffffffc0200a62:	5c256503          	lwu	a0,1474(a0) # ffffffffc0206020 <free_area+0x10>
ffffffffc0200a66:	8082                	ret

ffffffffc0200a68 <best_fit_alloc_pages>:
    assert(n > 0);
ffffffffc0200a68:	c14d                	beqz	a0,ffffffffc0200b0a <best_fit_alloc_pages+0xa2>
    if (n > nr_free) {
ffffffffc0200a6a:	00005617          	auipc	a2,0x5
ffffffffc0200a6e:	5a660613          	addi	a2,a2,1446 # ffffffffc0206010 <free_area>
ffffffffc0200a72:	01062803          	lw	a6,16(a2)
ffffffffc0200a76:	86aa                	mv	a3,a0
ffffffffc0200a78:	02081793          	slli	a5,a6,0x20
ffffffffc0200a7c:	9381                	srli	a5,a5,0x20
ffffffffc0200a7e:	08a7e463          	bltu	a5,a0,ffffffffc0200b06 <best_fit_alloc_pages+0x9e>
 * list_next - get the next entry
 * @listelm:    the list head
 **/
static inline list_entry_t *
list_next(list_entry_t *listelm) {
    return listelm->next;
ffffffffc0200a82:	661c                	ld	a5,8(a2)
    size_t min_size = nr_free + 1;
ffffffffc0200a84:	0018059b          	addiw	a1,a6,1
ffffffffc0200a88:	1582                	slli	a1,a1,0x20
ffffffffc0200a8a:	9181                	srli	a1,a1,0x20
    struct Page *temp = NULL;
ffffffffc0200a8c:	4501                	li	a0,0
    while ((le = list_next(le)) != &free_list) {
ffffffffc0200a8e:	06c78b63          	beq	a5,a2,ffffffffc0200b04 <best_fit_alloc_pages+0x9c>
        if (p->property >= n && p->property<min_size) {
ffffffffc0200a92:	ff87e703          	lwu	a4,-8(a5)
ffffffffc0200a96:	00d76763          	bltu	a4,a3,ffffffffc0200aa4 <best_fit_alloc_pages+0x3c>
ffffffffc0200a9a:	00b77563          	bgeu	a4,a1,ffffffffc0200aa4 <best_fit_alloc_pages+0x3c>
        struct Page *p = le2page(le, page_link);
ffffffffc0200a9e:	fe878513          	addi	a0,a5,-24
ffffffffc0200aa2:	85ba                	mv	a1,a4
ffffffffc0200aa4:	679c                	ld	a5,8(a5)
    while ((le = list_next(le)) != &free_list) {
ffffffffc0200aa6:	fec796e3          	bne	a5,a2,ffffffffc0200a92 <best_fit_alloc_pages+0x2a>
    if (page != NULL) {
ffffffffc0200aaa:	cd29                	beqz	a0,ffffffffc0200b04 <best_fit_alloc_pages+0x9c>
    __list_del(listelm->prev, listelm->next);
ffffffffc0200aac:	711c                	ld	a5,32(a0)
 * list_prev - get the previous entry
 * @listelm:    the list head
 **/
static inline list_entry_t *
list_prev(list_entry_t *listelm) {
    return listelm->prev;
ffffffffc0200aae:	6d18                	ld	a4,24(a0)
        if (page->property > n) {
ffffffffc0200ab0:	490c                	lw	a1,16(a0)
            p->property = page->property - n;
ffffffffc0200ab2:	0006889b          	sext.w	a7,a3
 * This is only for internal list manipulation where we know
 * the prev/next entries already!
 * */
static inline void
__list_del(list_entry_t *prev, list_entry_t *next) {
    prev->next = next;
ffffffffc0200ab6:	e71c                	sd	a5,8(a4)
    next->prev = prev;
ffffffffc0200ab8:	e398                	sd	a4,0(a5)
        if (page->property > n) {
ffffffffc0200aba:	02059793          	slli	a5,a1,0x20
ffffffffc0200abe:	9381                	srli	a5,a5,0x20
ffffffffc0200ac0:	02f6f863          	bgeu	a3,a5,ffffffffc0200af0 <best_fit_alloc_pages+0x88>
            struct Page *p = page + n;
ffffffffc0200ac4:	00269793          	slli	a5,a3,0x2
ffffffffc0200ac8:	97b6                	add	a5,a5,a3
ffffffffc0200aca:	078e                	slli	a5,a5,0x3
ffffffffc0200acc:	97aa                	add	a5,a5,a0
            p->property = page->property - n;
ffffffffc0200ace:	411585bb          	subw	a1,a1,a7
ffffffffc0200ad2:	cb8c                	sw	a1,16(a5)
ffffffffc0200ad4:	4689                	li	a3,2
ffffffffc0200ad6:	00878593          	addi	a1,a5,8
ffffffffc0200ada:	40d5b02f          	amoor.d	zero,a3,(a1)
    __list_add(elm, listelm, listelm->next);
ffffffffc0200ade:	6714                	ld	a3,8(a4)
            list_add(prev, &(p->page_link));
ffffffffc0200ae0:	01878593          	addi	a1,a5,24
        nr_free -= n;
ffffffffc0200ae4:	01062803          	lw	a6,16(a2)
    prev->next = next->prev = elm;
ffffffffc0200ae8:	e28c                	sd	a1,0(a3)
ffffffffc0200aea:	e70c                	sd	a1,8(a4)
    elm->next = next;
ffffffffc0200aec:	f394                	sd	a3,32(a5)
    elm->prev = prev;
ffffffffc0200aee:	ef98                	sd	a4,24(a5)
ffffffffc0200af0:	4118083b          	subw	a6,a6,a7
ffffffffc0200af4:	01062823          	sw	a6,16(a2)
 * clear_bit - Atomically clears a bit in memory
 * @nr:     the bit to clear
 * @addr:   the address to start counting from
 * */
static inline void clear_bit(int nr, volatile void *addr) {
    __op_bit(and, __NOT, nr, ((volatile unsigned long *)addr));
ffffffffc0200af8:	57f5                	li	a5,-3
ffffffffc0200afa:	00850713          	addi	a4,a0,8
ffffffffc0200afe:	60f7302f          	amoand.d	zero,a5,(a4)
}
ffffffffc0200b02:	8082                	ret
}
ffffffffc0200b04:	8082                	ret
        return NULL;
ffffffffc0200b06:	4501                	li	a0,0
ffffffffc0200b08:	8082                	ret
best_fit_alloc_pages(size_t n) {
ffffffffc0200b0a:	1141                	addi	sp,sp,-16
    assert(n > 0);
ffffffffc0200b0c:	00001697          	auipc	a3,0x1
ffffffffc0200b10:	71c68693          	addi	a3,a3,1820 # ffffffffc0202228 <commands+0x600>
ffffffffc0200b14:	00001617          	auipc	a2,0x1
ffffffffc0200b18:	71c60613          	addi	a2,a2,1820 # ffffffffc0202230 <commands+0x608>
ffffffffc0200b1c:	06b00593          	li	a1,107
ffffffffc0200b20:	00001517          	auipc	a0,0x1
ffffffffc0200b24:	72850513          	addi	a0,a0,1832 # ffffffffc0202248 <commands+0x620>
best_fit_alloc_pages(size_t n) {
ffffffffc0200b28:	e406                	sd	ra,8(sp)
    assert(n > 0);
ffffffffc0200b2a:	e10ff0ef          	jal	ra,ffffffffc020013a <__panic>

ffffffffc0200b2e <best_fit_check>:
}

// LAB2: below code is used to check the best fit allocation algorithm 
// NOTICE: You SHOULD NOT CHANGE basic_check, default_check functions!
static void
best_fit_check(void) {
ffffffffc0200b2e:	715d                	addi	sp,sp,-80
ffffffffc0200b30:	e0a2                	sd	s0,64(sp)
    return listelm->next;
ffffffffc0200b32:	00005417          	auipc	s0,0x5
ffffffffc0200b36:	4de40413          	addi	s0,s0,1246 # ffffffffc0206010 <free_area>
ffffffffc0200b3a:	641c                	ld	a5,8(s0)
ffffffffc0200b3c:	e486                	sd	ra,72(sp)
ffffffffc0200b3e:	fc26                	sd	s1,56(sp)
ffffffffc0200b40:	f84a                	sd	s2,48(sp)
ffffffffc0200b42:	f44e                	sd	s3,40(sp)
ffffffffc0200b44:	f052                	sd	s4,32(sp)
ffffffffc0200b46:	ec56                	sd	s5,24(sp)
ffffffffc0200b48:	e85a                	sd	s6,16(sp)
ffffffffc0200b4a:	e45e                	sd	s7,8(sp)
ffffffffc0200b4c:	e062                	sd	s8,0(sp)
    int score = 0 ,sumscore = 6;
    int count = 0, total = 0;
    list_entry_t *le = &free_list;
    while ((le = list_next(le)) != &free_list) {
ffffffffc0200b4e:	26878b63          	beq	a5,s0,ffffffffc0200dc4 <best_fit_check+0x296>
    int count = 0, total = 0;
ffffffffc0200b52:	4481                	li	s1,0
ffffffffc0200b54:	4901                	li	s2,0
 * test_bit - Determine whether a bit is set
 * @nr:     the bit to test
 * @addr:   the address to count from
 * */
static inline bool test_bit(int nr, volatile void *addr) {
    return (((*(volatile unsigned long *)addr) >> nr) & 1);
ffffffffc0200b56:	ff07b703          	ld	a4,-16(a5)
        struct Page *p = le2page(le, page_link);
        assert(PageProperty(p));
ffffffffc0200b5a:	8b09                	andi	a4,a4,2
ffffffffc0200b5c:	26070863          	beqz	a4,ffffffffc0200dcc <best_fit_check+0x29e>
        count ++, total += p->property;
ffffffffc0200b60:	ff87a703          	lw	a4,-8(a5)
ffffffffc0200b64:	679c                	ld	a5,8(a5)
ffffffffc0200b66:	2905                	addiw	s2,s2,1
ffffffffc0200b68:	9cb9                	addw	s1,s1,a4
    while ((le = list_next(le)) != &free_list) {
ffffffffc0200b6a:	fe8796e3          	bne	a5,s0,ffffffffc0200b56 <best_fit_check+0x28>
    }
    assert(total == nr_free_pages());
ffffffffc0200b6e:	89a6                	mv	s3,s1
ffffffffc0200b70:	d0fff0ef          	jal	ra,ffffffffc020087e <nr_free_pages>
ffffffffc0200b74:	33351c63          	bne	a0,s3,ffffffffc0200eac <best_fit_check+0x37e>
    assert((p0 = alloc_page()) != NULL);
ffffffffc0200b78:	4505                	li	a0,1
ffffffffc0200b7a:	c89ff0ef          	jal	ra,ffffffffc0200802 <alloc_pages>
ffffffffc0200b7e:	8a2a                	mv	s4,a0
ffffffffc0200b80:	36050663          	beqz	a0,ffffffffc0200eec <best_fit_check+0x3be>
    assert((p1 = alloc_page()) != NULL);
ffffffffc0200b84:	4505                	li	a0,1
ffffffffc0200b86:	c7dff0ef          	jal	ra,ffffffffc0200802 <alloc_pages>
ffffffffc0200b8a:	89aa                	mv	s3,a0
ffffffffc0200b8c:	34050063          	beqz	a0,ffffffffc0200ecc <best_fit_check+0x39e>
    assert((p2 = alloc_page()) != NULL);
ffffffffc0200b90:	4505                	li	a0,1
ffffffffc0200b92:	c71ff0ef          	jal	ra,ffffffffc0200802 <alloc_pages>
ffffffffc0200b96:	8aaa                	mv	s5,a0
ffffffffc0200b98:	2c050a63          	beqz	a0,ffffffffc0200e6c <best_fit_check+0x33e>
    assert(p0 != p1 && p0 != p2 && p1 != p2);
ffffffffc0200b9c:	253a0863          	beq	s4,s3,ffffffffc0200dec <best_fit_check+0x2be>
ffffffffc0200ba0:	24aa0663          	beq	s4,a0,ffffffffc0200dec <best_fit_check+0x2be>
ffffffffc0200ba4:	24a98463          	beq	s3,a0,ffffffffc0200dec <best_fit_check+0x2be>
    assert(page_ref(p0) == 0 && page_ref(p1) == 0 && page_ref(p2) == 0);
ffffffffc0200ba8:	000a2783          	lw	a5,0(s4)
ffffffffc0200bac:	26079063          	bnez	a5,ffffffffc0200e0c <best_fit_check+0x2de>
ffffffffc0200bb0:	0009a783          	lw	a5,0(s3)
ffffffffc0200bb4:	24079c63          	bnez	a5,ffffffffc0200e0c <best_fit_check+0x2de>
ffffffffc0200bb8:	411c                	lw	a5,0(a0)
ffffffffc0200bba:	24079963          	bnez	a5,ffffffffc0200e0c <best_fit_check+0x2de>
static inline ppn_t page2ppn(struct Page *page) { return page - pages + nbase; }
ffffffffc0200bbe:	00006797          	auipc	a5,0x6
ffffffffc0200bc2:	8827b783          	ld	a5,-1918(a5) # ffffffffc0206440 <pages>
ffffffffc0200bc6:	40fa0733          	sub	a4,s4,a5
ffffffffc0200bca:	870d                	srai	a4,a4,0x3
ffffffffc0200bcc:	00002597          	auipc	a1,0x2
ffffffffc0200bd0:	c2c5b583          	ld	a1,-980(a1) # ffffffffc02027f8 <nbase+0x8>
ffffffffc0200bd4:	02b70733          	mul	a4,a4,a1
ffffffffc0200bd8:	00002617          	auipc	a2,0x2
ffffffffc0200bdc:	c1863603          	ld	a2,-1000(a2) # ffffffffc02027f0 <nbase>
    assert(page2pa(p0) < npage * PGSIZE);
ffffffffc0200be0:	00006697          	auipc	a3,0x6
ffffffffc0200be4:	8586b683          	ld	a3,-1960(a3) # ffffffffc0206438 <npage>
ffffffffc0200be8:	06b2                	slli	a3,a3,0xc
ffffffffc0200bea:	9732                	add	a4,a4,a2
    return page2ppn(page) << PGSHIFT;
ffffffffc0200bec:	0732                	slli	a4,a4,0xc
ffffffffc0200bee:	22d77f63          	bgeu	a4,a3,ffffffffc0200e2c <best_fit_check+0x2fe>
static inline ppn_t page2ppn(struct Page *page) { return page - pages + nbase; }
ffffffffc0200bf2:	40f98733          	sub	a4,s3,a5
ffffffffc0200bf6:	870d                	srai	a4,a4,0x3
ffffffffc0200bf8:	02b70733          	mul	a4,a4,a1
ffffffffc0200bfc:	9732                	add	a4,a4,a2
    return page2ppn(page) << PGSHIFT;
ffffffffc0200bfe:	0732                	slli	a4,a4,0xc
    assert(page2pa(p1) < npage * PGSIZE);
ffffffffc0200c00:	3ed77663          	bgeu	a4,a3,ffffffffc0200fec <best_fit_check+0x4be>
static inline ppn_t page2ppn(struct Page *page) { return page - pages + nbase; }
ffffffffc0200c04:	40f507b3          	sub	a5,a0,a5
ffffffffc0200c08:	878d                	srai	a5,a5,0x3
ffffffffc0200c0a:	02b787b3          	mul	a5,a5,a1
ffffffffc0200c0e:	97b2                	add	a5,a5,a2
    return page2ppn(page) << PGSHIFT;
ffffffffc0200c10:	07b2                	slli	a5,a5,0xc
    assert(page2pa(p2) < npage * PGSIZE);
ffffffffc0200c12:	3ad7fd63          	bgeu	a5,a3,ffffffffc0200fcc <best_fit_check+0x49e>
    assert(alloc_page() == NULL);
ffffffffc0200c16:	4505                	li	a0,1
    list_entry_t free_list_store = free_list;
ffffffffc0200c18:	00043c03          	ld	s8,0(s0)
ffffffffc0200c1c:	00843b83          	ld	s7,8(s0)
    unsigned int nr_free_store = nr_free;
ffffffffc0200c20:	01042b03          	lw	s6,16(s0)
    elm->prev = elm->next = elm;
ffffffffc0200c24:	e400                	sd	s0,8(s0)
ffffffffc0200c26:	e000                	sd	s0,0(s0)
    nr_free = 0;
ffffffffc0200c28:	00005797          	auipc	a5,0x5
ffffffffc0200c2c:	3e07ac23          	sw	zero,1016(a5) # ffffffffc0206020 <free_area+0x10>
    assert(alloc_page() == NULL);
ffffffffc0200c30:	bd3ff0ef          	jal	ra,ffffffffc0200802 <alloc_pages>
ffffffffc0200c34:	36051c63          	bnez	a0,ffffffffc0200fac <best_fit_check+0x47e>
    free_page(p0);
ffffffffc0200c38:	4585                	li	a1,1
ffffffffc0200c3a:	8552                	mv	a0,s4
ffffffffc0200c3c:	c05ff0ef          	jal	ra,ffffffffc0200840 <free_pages>
    free_page(p1);
ffffffffc0200c40:	4585                	li	a1,1
ffffffffc0200c42:	854e                	mv	a0,s3
ffffffffc0200c44:	bfdff0ef          	jal	ra,ffffffffc0200840 <free_pages>
    free_page(p2);
ffffffffc0200c48:	4585                	li	a1,1
ffffffffc0200c4a:	8556                	mv	a0,s5
ffffffffc0200c4c:	bf5ff0ef          	jal	ra,ffffffffc0200840 <free_pages>
    assert(nr_free == 3);
ffffffffc0200c50:	4818                	lw	a4,16(s0)
ffffffffc0200c52:	478d                	li	a5,3
ffffffffc0200c54:	32f71c63          	bne	a4,a5,ffffffffc0200f8c <best_fit_check+0x45e>
    assert((p0 = alloc_page()) != NULL);
ffffffffc0200c58:	4505                	li	a0,1
ffffffffc0200c5a:	ba9ff0ef          	jal	ra,ffffffffc0200802 <alloc_pages>
ffffffffc0200c5e:	89aa                	mv	s3,a0
ffffffffc0200c60:	30050663          	beqz	a0,ffffffffc0200f6c <best_fit_check+0x43e>
    assert((p1 = alloc_page()) != NULL);
ffffffffc0200c64:	4505                	li	a0,1
ffffffffc0200c66:	b9dff0ef          	jal	ra,ffffffffc0200802 <alloc_pages>
ffffffffc0200c6a:	8aaa                	mv	s5,a0
ffffffffc0200c6c:	2e050063          	beqz	a0,ffffffffc0200f4c <best_fit_check+0x41e>
    assert((p2 = alloc_page()) != NULL);
ffffffffc0200c70:	4505                	li	a0,1
ffffffffc0200c72:	b91ff0ef          	jal	ra,ffffffffc0200802 <alloc_pages>
ffffffffc0200c76:	8a2a                	mv	s4,a0
ffffffffc0200c78:	2a050a63          	beqz	a0,ffffffffc0200f2c <best_fit_check+0x3fe>
    assert(alloc_page() == NULL);
ffffffffc0200c7c:	4505                	li	a0,1
ffffffffc0200c7e:	b85ff0ef          	jal	ra,ffffffffc0200802 <alloc_pages>
ffffffffc0200c82:	28051563          	bnez	a0,ffffffffc0200f0c <best_fit_check+0x3de>
    free_page(p0);
ffffffffc0200c86:	4585                	li	a1,1
ffffffffc0200c88:	854e                	mv	a0,s3
ffffffffc0200c8a:	bb7ff0ef          	jal	ra,ffffffffc0200840 <free_pages>
    assert(!list_empty(&free_list));
ffffffffc0200c8e:	641c                	ld	a5,8(s0)
ffffffffc0200c90:	1a878e63          	beq	a5,s0,ffffffffc0200e4c <best_fit_check+0x31e>
    assert((p = alloc_page()) == p0);
ffffffffc0200c94:	4505                	li	a0,1
ffffffffc0200c96:	b6dff0ef          	jal	ra,ffffffffc0200802 <alloc_pages>
ffffffffc0200c9a:	52a99963          	bne	s3,a0,ffffffffc02011cc <best_fit_check+0x69e>
    assert(alloc_page() == NULL);
ffffffffc0200c9e:	4505                	li	a0,1
ffffffffc0200ca0:	b63ff0ef          	jal	ra,ffffffffc0200802 <alloc_pages>
ffffffffc0200ca4:	50051463          	bnez	a0,ffffffffc02011ac <best_fit_check+0x67e>
    assert(nr_free == 0);
ffffffffc0200ca8:	481c                	lw	a5,16(s0)
ffffffffc0200caa:	4e079163          	bnez	a5,ffffffffc020118c <best_fit_check+0x65e>
    free_page(p);
ffffffffc0200cae:	854e                	mv	a0,s3
ffffffffc0200cb0:	4585                	li	a1,1
    free_list = free_list_store;
ffffffffc0200cb2:	01843023          	sd	s8,0(s0)
ffffffffc0200cb6:	01743423          	sd	s7,8(s0)
    nr_free = nr_free_store;
ffffffffc0200cba:	01642823          	sw	s6,16(s0)
    free_page(p);
ffffffffc0200cbe:	b83ff0ef          	jal	ra,ffffffffc0200840 <free_pages>
    free_page(p1);
ffffffffc0200cc2:	4585                	li	a1,1
ffffffffc0200cc4:	8556                	mv	a0,s5
ffffffffc0200cc6:	b7bff0ef          	jal	ra,ffffffffc0200840 <free_pages>
    free_page(p2);
ffffffffc0200cca:	4585                	li	a1,1
ffffffffc0200ccc:	8552                	mv	a0,s4
ffffffffc0200cce:	b73ff0ef          	jal	ra,ffffffffc0200840 <free_pages>

    #ifdef ucore_test
    score += 1;
    cprintf("grading: %d / %d points\n",score, sumscore);
    #endif
    struct Page *p0 = alloc_pages(5), *p1, *p2;
ffffffffc0200cd2:	4515                	li	a0,5
ffffffffc0200cd4:	b2fff0ef          	jal	ra,ffffffffc0200802 <alloc_pages>
ffffffffc0200cd8:	89aa                	mv	s3,a0
    assert(p0 != NULL);
ffffffffc0200cda:	48050963          	beqz	a0,ffffffffc020116c <best_fit_check+0x63e>
ffffffffc0200cde:	651c                	ld	a5,8(a0)
ffffffffc0200ce0:	8385                	srli	a5,a5,0x1
    assert(!PageProperty(p0));
ffffffffc0200ce2:	8b85                	andi	a5,a5,1
ffffffffc0200ce4:	46079463          	bnez	a5,ffffffffc020114c <best_fit_check+0x61e>
    cprintf("grading: %d / %d points\n",score, sumscore);
    #endif
    list_entry_t free_list_store = free_list;
    list_init(&free_list);
    assert(list_empty(&free_list));
    assert(alloc_page() == NULL);
ffffffffc0200ce8:	4505                	li	a0,1
    list_entry_t free_list_store = free_list;
ffffffffc0200cea:	00043a83          	ld	s5,0(s0)
ffffffffc0200cee:	00843a03          	ld	s4,8(s0)
ffffffffc0200cf2:	e000                	sd	s0,0(s0)
ffffffffc0200cf4:	e400                	sd	s0,8(s0)
    assert(alloc_page() == NULL);
ffffffffc0200cf6:	b0dff0ef          	jal	ra,ffffffffc0200802 <alloc_pages>
ffffffffc0200cfa:	42051963          	bnez	a0,ffffffffc020112c <best_fit_check+0x5fe>
    #endif
    unsigned int nr_free_store = nr_free;
    nr_free = 0;

    // * - - * -
    free_pages(p0 + 1, 2);
ffffffffc0200cfe:	4589                	li	a1,2
ffffffffc0200d00:	02898513          	addi	a0,s3,40
    unsigned int nr_free_store = nr_free;
ffffffffc0200d04:	01042b03          	lw	s6,16(s0)
    free_pages(p0 + 4, 1);
ffffffffc0200d08:	0a098c13          	addi	s8,s3,160
    nr_free = 0;
ffffffffc0200d0c:	00005797          	auipc	a5,0x5
ffffffffc0200d10:	3007aa23          	sw	zero,788(a5) # ffffffffc0206020 <free_area+0x10>
    free_pages(p0 + 1, 2);
ffffffffc0200d14:	b2dff0ef          	jal	ra,ffffffffc0200840 <free_pages>
    free_pages(p0 + 4, 1);
ffffffffc0200d18:	8562                	mv	a0,s8
ffffffffc0200d1a:	4585                	li	a1,1
ffffffffc0200d1c:	b25ff0ef          	jal	ra,ffffffffc0200840 <free_pages>
    assert(alloc_pages(4) == NULL);
ffffffffc0200d20:	4511                	li	a0,4
ffffffffc0200d22:	ae1ff0ef          	jal	ra,ffffffffc0200802 <alloc_pages>
ffffffffc0200d26:	3e051363          	bnez	a0,ffffffffc020110c <best_fit_check+0x5de>
ffffffffc0200d2a:	0309b783          	ld	a5,48(s3)
ffffffffc0200d2e:	8385                	srli	a5,a5,0x1
    assert(PageProperty(p0 + 1) && p0[1].property == 2);
ffffffffc0200d30:	8b85                	andi	a5,a5,1
ffffffffc0200d32:	3a078d63          	beqz	a5,ffffffffc02010ec <best_fit_check+0x5be>
ffffffffc0200d36:	0389a703          	lw	a4,56(s3)
ffffffffc0200d3a:	4789                	li	a5,2
ffffffffc0200d3c:	3af71863          	bne	a4,a5,ffffffffc02010ec <best_fit_check+0x5be>
    // * - - * *
    assert((p1 = alloc_pages(1)) != NULL);
ffffffffc0200d40:	4505                	li	a0,1
ffffffffc0200d42:	ac1ff0ef          	jal	ra,ffffffffc0200802 <alloc_pages>
ffffffffc0200d46:	8baa                	mv	s7,a0
ffffffffc0200d48:	38050263          	beqz	a0,ffffffffc02010cc <best_fit_check+0x59e>
    assert(alloc_pages(2) != NULL);      // best fit feature
ffffffffc0200d4c:	4509                	li	a0,2
ffffffffc0200d4e:	ab5ff0ef          	jal	ra,ffffffffc0200802 <alloc_pages>
ffffffffc0200d52:	34050d63          	beqz	a0,ffffffffc02010ac <best_fit_check+0x57e>
    assert(p0 + 4 == p1);
ffffffffc0200d56:	337c1b63          	bne	s8,s7,ffffffffc020108c <best_fit_check+0x55e>
    #ifdef ucore_test
    score += 1;
    cprintf("grading: %d / %d points\n",score, sumscore);
    #endif
    p2 = p0 + 1;
    free_pages(p0, 5);
ffffffffc0200d5a:	854e                	mv	a0,s3
ffffffffc0200d5c:	4595                	li	a1,5
ffffffffc0200d5e:	ae3ff0ef          	jal	ra,ffffffffc0200840 <free_pages>
    assert((p0 = alloc_pages(5)) != NULL);
ffffffffc0200d62:	4515                	li	a0,5
ffffffffc0200d64:	a9fff0ef          	jal	ra,ffffffffc0200802 <alloc_pages>
ffffffffc0200d68:	89aa                	mv	s3,a0
ffffffffc0200d6a:	30050163          	beqz	a0,ffffffffc020106c <best_fit_check+0x53e>
    assert(alloc_page() == NULL);
ffffffffc0200d6e:	4505                	li	a0,1
ffffffffc0200d70:	a93ff0ef          	jal	ra,ffffffffc0200802 <alloc_pages>
ffffffffc0200d74:	2c051c63          	bnez	a0,ffffffffc020104c <best_fit_check+0x51e>

    #ifdef ucore_test
    score += 1;
    cprintf("grading: %d / %d points\n",score, sumscore);
    #endif
    assert(nr_free == 0);
ffffffffc0200d78:	481c                	lw	a5,16(s0)
ffffffffc0200d7a:	2a079963          	bnez	a5,ffffffffc020102c <best_fit_check+0x4fe>
    nr_free = nr_free_store;

    free_list = free_list_store;
    free_pages(p0, 5);
ffffffffc0200d7e:	4595                	li	a1,5
ffffffffc0200d80:	854e                	mv	a0,s3
    nr_free = nr_free_store;
ffffffffc0200d82:	01642823          	sw	s6,16(s0)
    free_list = free_list_store;
ffffffffc0200d86:	01543023          	sd	s5,0(s0)
ffffffffc0200d8a:	01443423          	sd	s4,8(s0)
    free_pages(p0, 5);
ffffffffc0200d8e:	ab3ff0ef          	jal	ra,ffffffffc0200840 <free_pages>
    return listelm->next;
ffffffffc0200d92:	641c                	ld	a5,8(s0)

    le = &free_list;
    while ((le = list_next(le)) != &free_list) {
ffffffffc0200d94:	00878963          	beq	a5,s0,ffffffffc0200da6 <best_fit_check+0x278>
        struct Page *p = le2page(le, page_link);
        count --, total -= p->property;
ffffffffc0200d98:	ff87a703          	lw	a4,-8(a5)
ffffffffc0200d9c:	679c                	ld	a5,8(a5)
ffffffffc0200d9e:	397d                	addiw	s2,s2,-1
ffffffffc0200da0:	9c99                	subw	s1,s1,a4
    while ((le = list_next(le)) != &free_list) {
ffffffffc0200da2:	fe879be3          	bne	a5,s0,ffffffffc0200d98 <best_fit_check+0x26a>
    }
    assert(count == 0);
ffffffffc0200da6:	26091363          	bnez	s2,ffffffffc020100c <best_fit_check+0x4de>
    assert(total == 0);
ffffffffc0200daa:	e0ed                	bnez	s1,ffffffffc0200e8c <best_fit_check+0x35e>
    #ifdef ucore_test
    score += 1;
    cprintf("grading: %d / %d points\n",score, sumscore);
    #endif
}
ffffffffc0200dac:	60a6                	ld	ra,72(sp)
ffffffffc0200dae:	6406                	ld	s0,64(sp)
ffffffffc0200db0:	74e2                	ld	s1,56(sp)
ffffffffc0200db2:	7942                	ld	s2,48(sp)
ffffffffc0200db4:	79a2                	ld	s3,40(sp)
ffffffffc0200db6:	7a02                	ld	s4,32(sp)
ffffffffc0200db8:	6ae2                	ld	s5,24(sp)
ffffffffc0200dba:	6b42                	ld	s6,16(sp)
ffffffffc0200dbc:	6ba2                	ld	s7,8(sp)
ffffffffc0200dbe:	6c02                	ld	s8,0(sp)
ffffffffc0200dc0:	6161                	addi	sp,sp,80
ffffffffc0200dc2:	8082                	ret
    while ((le = list_next(le)) != &free_list) {
ffffffffc0200dc4:	4981                	li	s3,0
    int count = 0, total = 0;
ffffffffc0200dc6:	4481                	li	s1,0
ffffffffc0200dc8:	4901                	li	s2,0
ffffffffc0200dca:	b35d                	j	ffffffffc0200b70 <best_fit_check+0x42>
        assert(PageProperty(p));
ffffffffc0200dcc:	00001697          	auipc	a3,0x1
ffffffffc0200dd0:	49468693          	addi	a3,a3,1172 # ffffffffc0202260 <commands+0x638>
ffffffffc0200dd4:	00001617          	auipc	a2,0x1
ffffffffc0200dd8:	45c60613          	addi	a2,a2,1116 # ffffffffc0202230 <commands+0x608>
ffffffffc0200ddc:	10a00593          	li	a1,266
ffffffffc0200de0:	00001517          	auipc	a0,0x1
ffffffffc0200de4:	46850513          	addi	a0,a0,1128 # ffffffffc0202248 <commands+0x620>
ffffffffc0200de8:	b52ff0ef          	jal	ra,ffffffffc020013a <__panic>
    assert(p0 != p1 && p0 != p2 && p1 != p2);
ffffffffc0200dec:	00001697          	auipc	a3,0x1
ffffffffc0200df0:	50468693          	addi	a3,a3,1284 # ffffffffc02022f0 <commands+0x6c8>
ffffffffc0200df4:	00001617          	auipc	a2,0x1
ffffffffc0200df8:	43c60613          	addi	a2,a2,1084 # ffffffffc0202230 <commands+0x608>
ffffffffc0200dfc:	0d600593          	li	a1,214
ffffffffc0200e00:	00001517          	auipc	a0,0x1
ffffffffc0200e04:	44850513          	addi	a0,a0,1096 # ffffffffc0202248 <commands+0x620>
ffffffffc0200e08:	b32ff0ef          	jal	ra,ffffffffc020013a <__panic>
    assert(page_ref(p0) == 0 && page_ref(p1) == 0 && page_ref(p2) == 0);
ffffffffc0200e0c:	00001697          	auipc	a3,0x1
ffffffffc0200e10:	50c68693          	addi	a3,a3,1292 # ffffffffc0202318 <commands+0x6f0>
ffffffffc0200e14:	00001617          	auipc	a2,0x1
ffffffffc0200e18:	41c60613          	addi	a2,a2,1052 # ffffffffc0202230 <commands+0x608>
ffffffffc0200e1c:	0d700593          	li	a1,215
ffffffffc0200e20:	00001517          	auipc	a0,0x1
ffffffffc0200e24:	42850513          	addi	a0,a0,1064 # ffffffffc0202248 <commands+0x620>
ffffffffc0200e28:	b12ff0ef          	jal	ra,ffffffffc020013a <__panic>
    assert(page2pa(p0) < npage * PGSIZE);
ffffffffc0200e2c:	00001697          	auipc	a3,0x1
ffffffffc0200e30:	52c68693          	addi	a3,a3,1324 # ffffffffc0202358 <commands+0x730>
ffffffffc0200e34:	00001617          	auipc	a2,0x1
ffffffffc0200e38:	3fc60613          	addi	a2,a2,1020 # ffffffffc0202230 <commands+0x608>
ffffffffc0200e3c:	0d900593          	li	a1,217
ffffffffc0200e40:	00001517          	auipc	a0,0x1
ffffffffc0200e44:	40850513          	addi	a0,a0,1032 # ffffffffc0202248 <commands+0x620>
ffffffffc0200e48:	af2ff0ef          	jal	ra,ffffffffc020013a <__panic>
    assert(!list_empty(&free_list));
ffffffffc0200e4c:	00001697          	auipc	a3,0x1
ffffffffc0200e50:	59468693          	addi	a3,a3,1428 # ffffffffc02023e0 <commands+0x7b8>
ffffffffc0200e54:	00001617          	auipc	a2,0x1
ffffffffc0200e58:	3dc60613          	addi	a2,a2,988 # ffffffffc0202230 <commands+0x608>
ffffffffc0200e5c:	0f200593          	li	a1,242
ffffffffc0200e60:	00001517          	auipc	a0,0x1
ffffffffc0200e64:	3e850513          	addi	a0,a0,1000 # ffffffffc0202248 <commands+0x620>
ffffffffc0200e68:	ad2ff0ef          	jal	ra,ffffffffc020013a <__panic>
    assert((p2 = alloc_page()) != NULL);
ffffffffc0200e6c:	00001697          	auipc	a3,0x1
ffffffffc0200e70:	46468693          	addi	a3,a3,1124 # ffffffffc02022d0 <commands+0x6a8>
ffffffffc0200e74:	00001617          	auipc	a2,0x1
ffffffffc0200e78:	3bc60613          	addi	a2,a2,956 # ffffffffc0202230 <commands+0x608>
ffffffffc0200e7c:	0d400593          	li	a1,212
ffffffffc0200e80:	00001517          	auipc	a0,0x1
ffffffffc0200e84:	3c850513          	addi	a0,a0,968 # ffffffffc0202248 <commands+0x620>
ffffffffc0200e88:	ab2ff0ef          	jal	ra,ffffffffc020013a <__panic>
    assert(total == 0);
ffffffffc0200e8c:	00001697          	auipc	a3,0x1
ffffffffc0200e90:	68468693          	addi	a3,a3,1668 # ffffffffc0202510 <commands+0x8e8>
ffffffffc0200e94:	00001617          	auipc	a2,0x1
ffffffffc0200e98:	39c60613          	addi	a2,a2,924 # ffffffffc0202230 <commands+0x608>
ffffffffc0200e9c:	14c00593          	li	a1,332
ffffffffc0200ea0:	00001517          	auipc	a0,0x1
ffffffffc0200ea4:	3a850513          	addi	a0,a0,936 # ffffffffc0202248 <commands+0x620>
ffffffffc0200ea8:	a92ff0ef          	jal	ra,ffffffffc020013a <__panic>
    assert(total == nr_free_pages());
ffffffffc0200eac:	00001697          	auipc	a3,0x1
ffffffffc0200eb0:	3c468693          	addi	a3,a3,964 # ffffffffc0202270 <commands+0x648>
ffffffffc0200eb4:	00001617          	auipc	a2,0x1
ffffffffc0200eb8:	37c60613          	addi	a2,a2,892 # ffffffffc0202230 <commands+0x608>
ffffffffc0200ebc:	10d00593          	li	a1,269
ffffffffc0200ec0:	00001517          	auipc	a0,0x1
ffffffffc0200ec4:	38850513          	addi	a0,a0,904 # ffffffffc0202248 <commands+0x620>
ffffffffc0200ec8:	a72ff0ef          	jal	ra,ffffffffc020013a <__panic>
    assert((p1 = alloc_page()) != NULL);
ffffffffc0200ecc:	00001697          	auipc	a3,0x1
ffffffffc0200ed0:	3e468693          	addi	a3,a3,996 # ffffffffc02022b0 <commands+0x688>
ffffffffc0200ed4:	00001617          	auipc	a2,0x1
ffffffffc0200ed8:	35c60613          	addi	a2,a2,860 # ffffffffc0202230 <commands+0x608>
ffffffffc0200edc:	0d300593          	li	a1,211
ffffffffc0200ee0:	00001517          	auipc	a0,0x1
ffffffffc0200ee4:	36850513          	addi	a0,a0,872 # ffffffffc0202248 <commands+0x620>
ffffffffc0200ee8:	a52ff0ef          	jal	ra,ffffffffc020013a <__panic>
    assert((p0 = alloc_page()) != NULL);
ffffffffc0200eec:	00001697          	auipc	a3,0x1
ffffffffc0200ef0:	3a468693          	addi	a3,a3,932 # ffffffffc0202290 <commands+0x668>
ffffffffc0200ef4:	00001617          	auipc	a2,0x1
ffffffffc0200ef8:	33c60613          	addi	a2,a2,828 # ffffffffc0202230 <commands+0x608>
ffffffffc0200efc:	0d200593          	li	a1,210
ffffffffc0200f00:	00001517          	auipc	a0,0x1
ffffffffc0200f04:	34850513          	addi	a0,a0,840 # ffffffffc0202248 <commands+0x620>
ffffffffc0200f08:	a32ff0ef          	jal	ra,ffffffffc020013a <__panic>
    assert(alloc_page() == NULL);
ffffffffc0200f0c:	00001697          	auipc	a3,0x1
ffffffffc0200f10:	4ac68693          	addi	a3,a3,1196 # ffffffffc02023b8 <commands+0x790>
ffffffffc0200f14:	00001617          	auipc	a2,0x1
ffffffffc0200f18:	31c60613          	addi	a2,a2,796 # ffffffffc0202230 <commands+0x608>
ffffffffc0200f1c:	0ef00593          	li	a1,239
ffffffffc0200f20:	00001517          	auipc	a0,0x1
ffffffffc0200f24:	32850513          	addi	a0,a0,808 # ffffffffc0202248 <commands+0x620>
ffffffffc0200f28:	a12ff0ef          	jal	ra,ffffffffc020013a <__panic>
    assert((p2 = alloc_page()) != NULL);
ffffffffc0200f2c:	00001697          	auipc	a3,0x1
ffffffffc0200f30:	3a468693          	addi	a3,a3,932 # ffffffffc02022d0 <commands+0x6a8>
ffffffffc0200f34:	00001617          	auipc	a2,0x1
ffffffffc0200f38:	2fc60613          	addi	a2,a2,764 # ffffffffc0202230 <commands+0x608>
ffffffffc0200f3c:	0ed00593          	li	a1,237
ffffffffc0200f40:	00001517          	auipc	a0,0x1
ffffffffc0200f44:	30850513          	addi	a0,a0,776 # ffffffffc0202248 <commands+0x620>
ffffffffc0200f48:	9f2ff0ef          	jal	ra,ffffffffc020013a <__panic>
    assert((p1 = alloc_page()) != NULL);
ffffffffc0200f4c:	00001697          	auipc	a3,0x1
ffffffffc0200f50:	36468693          	addi	a3,a3,868 # ffffffffc02022b0 <commands+0x688>
ffffffffc0200f54:	00001617          	auipc	a2,0x1
ffffffffc0200f58:	2dc60613          	addi	a2,a2,732 # ffffffffc0202230 <commands+0x608>
ffffffffc0200f5c:	0ec00593          	li	a1,236
ffffffffc0200f60:	00001517          	auipc	a0,0x1
ffffffffc0200f64:	2e850513          	addi	a0,a0,744 # ffffffffc0202248 <commands+0x620>
ffffffffc0200f68:	9d2ff0ef          	jal	ra,ffffffffc020013a <__panic>
    assert((p0 = alloc_page()) != NULL);
ffffffffc0200f6c:	00001697          	auipc	a3,0x1
ffffffffc0200f70:	32468693          	addi	a3,a3,804 # ffffffffc0202290 <commands+0x668>
ffffffffc0200f74:	00001617          	auipc	a2,0x1
ffffffffc0200f78:	2bc60613          	addi	a2,a2,700 # ffffffffc0202230 <commands+0x608>
ffffffffc0200f7c:	0eb00593          	li	a1,235
ffffffffc0200f80:	00001517          	auipc	a0,0x1
ffffffffc0200f84:	2c850513          	addi	a0,a0,712 # ffffffffc0202248 <commands+0x620>
ffffffffc0200f88:	9b2ff0ef          	jal	ra,ffffffffc020013a <__panic>
    assert(nr_free == 3);
ffffffffc0200f8c:	00001697          	auipc	a3,0x1
ffffffffc0200f90:	44468693          	addi	a3,a3,1092 # ffffffffc02023d0 <commands+0x7a8>
ffffffffc0200f94:	00001617          	auipc	a2,0x1
ffffffffc0200f98:	29c60613          	addi	a2,a2,668 # ffffffffc0202230 <commands+0x608>
ffffffffc0200f9c:	0e900593          	li	a1,233
ffffffffc0200fa0:	00001517          	auipc	a0,0x1
ffffffffc0200fa4:	2a850513          	addi	a0,a0,680 # ffffffffc0202248 <commands+0x620>
ffffffffc0200fa8:	992ff0ef          	jal	ra,ffffffffc020013a <__panic>
    assert(alloc_page() == NULL);
ffffffffc0200fac:	00001697          	auipc	a3,0x1
ffffffffc0200fb0:	40c68693          	addi	a3,a3,1036 # ffffffffc02023b8 <commands+0x790>
ffffffffc0200fb4:	00001617          	auipc	a2,0x1
ffffffffc0200fb8:	27c60613          	addi	a2,a2,636 # ffffffffc0202230 <commands+0x608>
ffffffffc0200fbc:	0e400593          	li	a1,228
ffffffffc0200fc0:	00001517          	auipc	a0,0x1
ffffffffc0200fc4:	28850513          	addi	a0,a0,648 # ffffffffc0202248 <commands+0x620>
ffffffffc0200fc8:	972ff0ef          	jal	ra,ffffffffc020013a <__panic>
    assert(page2pa(p2) < npage * PGSIZE);
ffffffffc0200fcc:	00001697          	auipc	a3,0x1
ffffffffc0200fd0:	3cc68693          	addi	a3,a3,972 # ffffffffc0202398 <commands+0x770>
ffffffffc0200fd4:	00001617          	auipc	a2,0x1
ffffffffc0200fd8:	25c60613          	addi	a2,a2,604 # ffffffffc0202230 <commands+0x608>
ffffffffc0200fdc:	0db00593          	li	a1,219
ffffffffc0200fe0:	00001517          	auipc	a0,0x1
ffffffffc0200fe4:	26850513          	addi	a0,a0,616 # ffffffffc0202248 <commands+0x620>
ffffffffc0200fe8:	952ff0ef          	jal	ra,ffffffffc020013a <__panic>
    assert(page2pa(p1) < npage * PGSIZE);
ffffffffc0200fec:	00001697          	auipc	a3,0x1
ffffffffc0200ff0:	38c68693          	addi	a3,a3,908 # ffffffffc0202378 <commands+0x750>
ffffffffc0200ff4:	00001617          	auipc	a2,0x1
ffffffffc0200ff8:	23c60613          	addi	a2,a2,572 # ffffffffc0202230 <commands+0x608>
ffffffffc0200ffc:	0da00593          	li	a1,218
ffffffffc0201000:	00001517          	auipc	a0,0x1
ffffffffc0201004:	24850513          	addi	a0,a0,584 # ffffffffc0202248 <commands+0x620>
ffffffffc0201008:	932ff0ef          	jal	ra,ffffffffc020013a <__panic>
    assert(count == 0);
ffffffffc020100c:	00001697          	auipc	a3,0x1
ffffffffc0201010:	4f468693          	addi	a3,a3,1268 # ffffffffc0202500 <commands+0x8d8>
ffffffffc0201014:	00001617          	auipc	a2,0x1
ffffffffc0201018:	21c60613          	addi	a2,a2,540 # ffffffffc0202230 <commands+0x608>
ffffffffc020101c:	14b00593          	li	a1,331
ffffffffc0201020:	00001517          	auipc	a0,0x1
ffffffffc0201024:	22850513          	addi	a0,a0,552 # ffffffffc0202248 <commands+0x620>
ffffffffc0201028:	912ff0ef          	jal	ra,ffffffffc020013a <__panic>
    assert(nr_free == 0);
ffffffffc020102c:	00001697          	auipc	a3,0x1
ffffffffc0201030:	3ec68693          	addi	a3,a3,1004 # ffffffffc0202418 <commands+0x7f0>
ffffffffc0201034:	00001617          	auipc	a2,0x1
ffffffffc0201038:	1fc60613          	addi	a2,a2,508 # ffffffffc0202230 <commands+0x608>
ffffffffc020103c:	14000593          	li	a1,320
ffffffffc0201040:	00001517          	auipc	a0,0x1
ffffffffc0201044:	20850513          	addi	a0,a0,520 # ffffffffc0202248 <commands+0x620>
ffffffffc0201048:	8f2ff0ef          	jal	ra,ffffffffc020013a <__panic>
    assert(alloc_page() == NULL);
ffffffffc020104c:	00001697          	auipc	a3,0x1
ffffffffc0201050:	36c68693          	addi	a3,a3,876 # ffffffffc02023b8 <commands+0x790>
ffffffffc0201054:	00001617          	auipc	a2,0x1
ffffffffc0201058:	1dc60613          	addi	a2,a2,476 # ffffffffc0202230 <commands+0x608>
ffffffffc020105c:	13a00593          	li	a1,314
ffffffffc0201060:	00001517          	auipc	a0,0x1
ffffffffc0201064:	1e850513          	addi	a0,a0,488 # ffffffffc0202248 <commands+0x620>
ffffffffc0201068:	8d2ff0ef          	jal	ra,ffffffffc020013a <__panic>
    assert((p0 = alloc_pages(5)) != NULL);
ffffffffc020106c:	00001697          	auipc	a3,0x1
ffffffffc0201070:	47468693          	addi	a3,a3,1140 # ffffffffc02024e0 <commands+0x8b8>
ffffffffc0201074:	00001617          	auipc	a2,0x1
ffffffffc0201078:	1bc60613          	addi	a2,a2,444 # ffffffffc0202230 <commands+0x608>
ffffffffc020107c:	13900593          	li	a1,313
ffffffffc0201080:	00001517          	auipc	a0,0x1
ffffffffc0201084:	1c850513          	addi	a0,a0,456 # ffffffffc0202248 <commands+0x620>
ffffffffc0201088:	8b2ff0ef          	jal	ra,ffffffffc020013a <__panic>
    assert(p0 + 4 == p1);
ffffffffc020108c:	00001697          	auipc	a3,0x1
ffffffffc0201090:	44468693          	addi	a3,a3,1092 # ffffffffc02024d0 <commands+0x8a8>
ffffffffc0201094:	00001617          	auipc	a2,0x1
ffffffffc0201098:	19c60613          	addi	a2,a2,412 # ffffffffc0202230 <commands+0x608>
ffffffffc020109c:	13100593          	li	a1,305
ffffffffc02010a0:	00001517          	auipc	a0,0x1
ffffffffc02010a4:	1a850513          	addi	a0,a0,424 # ffffffffc0202248 <commands+0x620>
ffffffffc02010a8:	892ff0ef          	jal	ra,ffffffffc020013a <__panic>
    assert(alloc_pages(2) != NULL);      // best fit feature
ffffffffc02010ac:	00001697          	auipc	a3,0x1
ffffffffc02010b0:	40c68693          	addi	a3,a3,1036 # ffffffffc02024b8 <commands+0x890>
ffffffffc02010b4:	00001617          	auipc	a2,0x1
ffffffffc02010b8:	17c60613          	addi	a2,a2,380 # ffffffffc0202230 <commands+0x608>
ffffffffc02010bc:	13000593          	li	a1,304
ffffffffc02010c0:	00001517          	auipc	a0,0x1
ffffffffc02010c4:	18850513          	addi	a0,a0,392 # ffffffffc0202248 <commands+0x620>
ffffffffc02010c8:	872ff0ef          	jal	ra,ffffffffc020013a <__panic>
    assert((p1 = alloc_pages(1)) != NULL);
ffffffffc02010cc:	00001697          	auipc	a3,0x1
ffffffffc02010d0:	3cc68693          	addi	a3,a3,972 # ffffffffc0202498 <commands+0x870>
ffffffffc02010d4:	00001617          	auipc	a2,0x1
ffffffffc02010d8:	15c60613          	addi	a2,a2,348 # ffffffffc0202230 <commands+0x608>
ffffffffc02010dc:	12f00593          	li	a1,303
ffffffffc02010e0:	00001517          	auipc	a0,0x1
ffffffffc02010e4:	16850513          	addi	a0,a0,360 # ffffffffc0202248 <commands+0x620>
ffffffffc02010e8:	852ff0ef          	jal	ra,ffffffffc020013a <__panic>
    assert(PageProperty(p0 + 1) && p0[1].property == 2);
ffffffffc02010ec:	00001697          	auipc	a3,0x1
ffffffffc02010f0:	37c68693          	addi	a3,a3,892 # ffffffffc0202468 <commands+0x840>
ffffffffc02010f4:	00001617          	auipc	a2,0x1
ffffffffc02010f8:	13c60613          	addi	a2,a2,316 # ffffffffc0202230 <commands+0x608>
ffffffffc02010fc:	12d00593          	li	a1,301
ffffffffc0201100:	00001517          	auipc	a0,0x1
ffffffffc0201104:	14850513          	addi	a0,a0,328 # ffffffffc0202248 <commands+0x620>
ffffffffc0201108:	832ff0ef          	jal	ra,ffffffffc020013a <__panic>
    assert(alloc_pages(4) == NULL);
ffffffffc020110c:	00001697          	auipc	a3,0x1
ffffffffc0201110:	34468693          	addi	a3,a3,836 # ffffffffc0202450 <commands+0x828>
ffffffffc0201114:	00001617          	auipc	a2,0x1
ffffffffc0201118:	11c60613          	addi	a2,a2,284 # ffffffffc0202230 <commands+0x608>
ffffffffc020111c:	12c00593          	li	a1,300
ffffffffc0201120:	00001517          	auipc	a0,0x1
ffffffffc0201124:	12850513          	addi	a0,a0,296 # ffffffffc0202248 <commands+0x620>
ffffffffc0201128:	812ff0ef          	jal	ra,ffffffffc020013a <__panic>
    assert(alloc_page() == NULL);
ffffffffc020112c:	00001697          	auipc	a3,0x1
ffffffffc0201130:	28c68693          	addi	a3,a3,652 # ffffffffc02023b8 <commands+0x790>
ffffffffc0201134:	00001617          	auipc	a2,0x1
ffffffffc0201138:	0fc60613          	addi	a2,a2,252 # ffffffffc0202230 <commands+0x608>
ffffffffc020113c:	12000593          	li	a1,288
ffffffffc0201140:	00001517          	auipc	a0,0x1
ffffffffc0201144:	10850513          	addi	a0,a0,264 # ffffffffc0202248 <commands+0x620>
ffffffffc0201148:	ff3fe0ef          	jal	ra,ffffffffc020013a <__panic>
    assert(!PageProperty(p0));
ffffffffc020114c:	00001697          	auipc	a3,0x1
ffffffffc0201150:	2ec68693          	addi	a3,a3,748 # ffffffffc0202438 <commands+0x810>
ffffffffc0201154:	00001617          	auipc	a2,0x1
ffffffffc0201158:	0dc60613          	addi	a2,a2,220 # ffffffffc0202230 <commands+0x608>
ffffffffc020115c:	11700593          	li	a1,279
ffffffffc0201160:	00001517          	auipc	a0,0x1
ffffffffc0201164:	0e850513          	addi	a0,a0,232 # ffffffffc0202248 <commands+0x620>
ffffffffc0201168:	fd3fe0ef          	jal	ra,ffffffffc020013a <__panic>
    assert(p0 != NULL);
ffffffffc020116c:	00001697          	auipc	a3,0x1
ffffffffc0201170:	2bc68693          	addi	a3,a3,700 # ffffffffc0202428 <commands+0x800>
ffffffffc0201174:	00001617          	auipc	a2,0x1
ffffffffc0201178:	0bc60613          	addi	a2,a2,188 # ffffffffc0202230 <commands+0x608>
ffffffffc020117c:	11600593          	li	a1,278
ffffffffc0201180:	00001517          	auipc	a0,0x1
ffffffffc0201184:	0c850513          	addi	a0,a0,200 # ffffffffc0202248 <commands+0x620>
ffffffffc0201188:	fb3fe0ef          	jal	ra,ffffffffc020013a <__panic>
    assert(nr_free == 0);
ffffffffc020118c:	00001697          	auipc	a3,0x1
ffffffffc0201190:	28c68693          	addi	a3,a3,652 # ffffffffc0202418 <commands+0x7f0>
ffffffffc0201194:	00001617          	auipc	a2,0x1
ffffffffc0201198:	09c60613          	addi	a2,a2,156 # ffffffffc0202230 <commands+0x608>
ffffffffc020119c:	0f800593          	li	a1,248
ffffffffc02011a0:	00001517          	auipc	a0,0x1
ffffffffc02011a4:	0a850513          	addi	a0,a0,168 # ffffffffc0202248 <commands+0x620>
ffffffffc02011a8:	f93fe0ef          	jal	ra,ffffffffc020013a <__panic>
    assert(alloc_page() == NULL);
ffffffffc02011ac:	00001697          	auipc	a3,0x1
ffffffffc02011b0:	20c68693          	addi	a3,a3,524 # ffffffffc02023b8 <commands+0x790>
ffffffffc02011b4:	00001617          	auipc	a2,0x1
ffffffffc02011b8:	07c60613          	addi	a2,a2,124 # ffffffffc0202230 <commands+0x608>
ffffffffc02011bc:	0f600593          	li	a1,246
ffffffffc02011c0:	00001517          	auipc	a0,0x1
ffffffffc02011c4:	08850513          	addi	a0,a0,136 # ffffffffc0202248 <commands+0x620>
ffffffffc02011c8:	f73fe0ef          	jal	ra,ffffffffc020013a <__panic>
    assert((p = alloc_page()) == p0);
ffffffffc02011cc:	00001697          	auipc	a3,0x1
ffffffffc02011d0:	22c68693          	addi	a3,a3,556 # ffffffffc02023f8 <commands+0x7d0>
ffffffffc02011d4:	00001617          	auipc	a2,0x1
ffffffffc02011d8:	05c60613          	addi	a2,a2,92 # ffffffffc0202230 <commands+0x608>
ffffffffc02011dc:	0f500593          	li	a1,245
ffffffffc02011e0:	00001517          	auipc	a0,0x1
ffffffffc02011e4:	06850513          	addi	a0,a0,104 # ffffffffc0202248 <commands+0x620>
ffffffffc02011e8:	f53fe0ef          	jal	ra,ffffffffc020013a <__panic>

ffffffffc02011ec <best_fit_free_pages>:
best_fit_free_pages(struct Page *base, size_t n) {
ffffffffc02011ec:	1141                	addi	sp,sp,-16
ffffffffc02011ee:	e406                	sd	ra,8(sp)
    assert(n > 0);
ffffffffc02011f0:	14058a63          	beqz	a1,ffffffffc0201344 <best_fit_free_pages+0x158>
    for (; p != base + n; p ++) {
ffffffffc02011f4:	00259693          	slli	a3,a1,0x2
ffffffffc02011f8:	96ae                	add	a3,a3,a1
ffffffffc02011fa:	068e                	slli	a3,a3,0x3
ffffffffc02011fc:	96aa                	add	a3,a3,a0
ffffffffc02011fe:	87aa                	mv	a5,a0
ffffffffc0201200:	02d50263          	beq	a0,a3,ffffffffc0201224 <best_fit_free_pages+0x38>
ffffffffc0201204:	6798                	ld	a4,8(a5)
        assert(!PageReserved(p) && !PageProperty(p));
ffffffffc0201206:	8b05                	andi	a4,a4,1
ffffffffc0201208:	10071e63          	bnez	a4,ffffffffc0201324 <best_fit_free_pages+0x138>
ffffffffc020120c:	6798                	ld	a4,8(a5)
ffffffffc020120e:	8b09                	andi	a4,a4,2
ffffffffc0201210:	10071a63          	bnez	a4,ffffffffc0201324 <best_fit_free_pages+0x138>
        p->flags = 0;
ffffffffc0201214:	0007b423          	sd	zero,8(a5)
static inline void set_page_ref(struct Page *page, int val) { page->ref = val; }
ffffffffc0201218:	0007a023          	sw	zero,0(a5)
    for (; p != base + n; p ++) {
ffffffffc020121c:	02878793          	addi	a5,a5,40
ffffffffc0201220:	fed792e3          	bne	a5,a3,ffffffffc0201204 <best_fit_free_pages+0x18>
    base->property=n;
ffffffffc0201224:	2581                	sext.w	a1,a1
ffffffffc0201226:	c90c                	sw	a1,16(a0)
    SetPageProperty(base);
ffffffffc0201228:	00850893          	addi	a7,a0,8
    __op_bit(or, __NOP, nr, ((volatile unsigned long *)addr));
ffffffffc020122c:	4789                	li	a5,2
ffffffffc020122e:	40f8b02f          	amoor.d	zero,a5,(a7)
    nr_free+=n;
ffffffffc0201232:	00005697          	auipc	a3,0x5
ffffffffc0201236:	dde68693          	addi	a3,a3,-546 # ffffffffc0206010 <free_area>
ffffffffc020123a:	4a98                	lw	a4,16(a3)
    return list->next == list;
ffffffffc020123c:	669c                	ld	a5,8(a3)
        list_add(&free_list, &(base->page_link));
ffffffffc020123e:	01850613          	addi	a2,a0,24
    nr_free+=n;
ffffffffc0201242:	9db9                	addw	a1,a1,a4
ffffffffc0201244:	ca8c                	sw	a1,16(a3)
    if (list_empty(&free_list)) {
ffffffffc0201246:	0ad78863          	beq	a5,a3,ffffffffc02012f6 <best_fit_free_pages+0x10a>
            struct Page* page = le2page(le, page_link);
ffffffffc020124a:	fe878713          	addi	a4,a5,-24
ffffffffc020124e:	0006b803          	ld	a6,0(a3)
    if (list_empty(&free_list)) {
ffffffffc0201252:	4581                	li	a1,0
            if (base < page) {
ffffffffc0201254:	00e56a63          	bltu	a0,a4,ffffffffc0201268 <best_fit_free_pages+0x7c>
    return listelm->next;
ffffffffc0201258:	6798                	ld	a4,8(a5)
            } else if (list_next(le) == &free_list) {
ffffffffc020125a:	06d70263          	beq	a4,a3,ffffffffc02012be <best_fit_free_pages+0xd2>
    for (; p != base + n; p ++) {
ffffffffc020125e:	87ba                	mv	a5,a4
            struct Page* page = le2page(le, page_link);
ffffffffc0201260:	fe878713          	addi	a4,a5,-24
            if (base < page) {
ffffffffc0201264:	fee57ae3          	bgeu	a0,a4,ffffffffc0201258 <best_fit_free_pages+0x6c>
ffffffffc0201268:	c199                	beqz	a1,ffffffffc020126e <best_fit_free_pages+0x82>
ffffffffc020126a:	0106b023          	sd	a6,0(a3)
    __list_add(elm, listelm->prev, listelm);
ffffffffc020126e:	6398                	ld	a4,0(a5)
    prev->next = next->prev = elm;
ffffffffc0201270:	e390                	sd	a2,0(a5)
ffffffffc0201272:	e710                	sd	a2,8(a4)
    elm->next = next;
ffffffffc0201274:	f11c                	sd	a5,32(a0)
    elm->prev = prev;
ffffffffc0201276:	ed18                	sd	a4,24(a0)
    if (le != &free_list) {
ffffffffc0201278:	02d70063          	beq	a4,a3,ffffffffc0201298 <best_fit_free_pages+0xac>
        if(p+p->property==base){
ffffffffc020127c:	ff872803          	lw	a6,-8(a4) # ffffffffffffeff8 <end+0x3fdf8b88>
        p = le2page(le, page_link);
ffffffffc0201280:	fe870593          	addi	a1,a4,-24
        if(p+p->property==base){
ffffffffc0201284:	02081613          	slli	a2,a6,0x20
ffffffffc0201288:	9201                	srli	a2,a2,0x20
ffffffffc020128a:	00261793          	slli	a5,a2,0x2
ffffffffc020128e:	97b2                	add	a5,a5,a2
ffffffffc0201290:	078e                	slli	a5,a5,0x3
ffffffffc0201292:	97ae                	add	a5,a5,a1
ffffffffc0201294:	02f50f63          	beq	a0,a5,ffffffffc02012d2 <best_fit_free_pages+0xe6>
    return listelm->next;
ffffffffc0201298:	7118                	ld	a4,32(a0)
    if (le != &free_list) {
ffffffffc020129a:	00d70f63          	beq	a4,a3,ffffffffc02012b8 <best_fit_free_pages+0xcc>
        if (base + base->property == p) {
ffffffffc020129e:	490c                	lw	a1,16(a0)
        p = le2page(le, page_link);
ffffffffc02012a0:	fe870693          	addi	a3,a4,-24
        if (base + base->property == p) {
ffffffffc02012a4:	02059613          	slli	a2,a1,0x20
ffffffffc02012a8:	9201                	srli	a2,a2,0x20
ffffffffc02012aa:	00261793          	slli	a5,a2,0x2
ffffffffc02012ae:	97b2                	add	a5,a5,a2
ffffffffc02012b0:	078e                	slli	a5,a5,0x3
ffffffffc02012b2:	97aa                	add	a5,a5,a0
ffffffffc02012b4:	04f68863          	beq	a3,a5,ffffffffc0201304 <best_fit_free_pages+0x118>
}
ffffffffc02012b8:	60a2                	ld	ra,8(sp)
ffffffffc02012ba:	0141                	addi	sp,sp,16
ffffffffc02012bc:	8082                	ret
    prev->next = next->prev = elm;
ffffffffc02012be:	e790                	sd	a2,8(a5)
    elm->next = next;
ffffffffc02012c0:	f114                	sd	a3,32(a0)
    return listelm->next;
ffffffffc02012c2:	6798                	ld	a4,8(a5)
    elm->prev = prev;
ffffffffc02012c4:	ed1c                	sd	a5,24(a0)
        while ((le = list_next(le)) != &free_list) {
ffffffffc02012c6:	02d70563          	beq	a4,a3,ffffffffc02012f0 <best_fit_free_pages+0x104>
    prev->next = next->prev = elm;
ffffffffc02012ca:	8832                	mv	a6,a2
ffffffffc02012cc:	4585                	li	a1,1
    for (; p != base + n; p ++) {
ffffffffc02012ce:	87ba                	mv	a5,a4
ffffffffc02012d0:	bf41                	j	ffffffffc0201260 <best_fit_free_pages+0x74>
            p->property+=base->property;
ffffffffc02012d2:	491c                	lw	a5,16(a0)
ffffffffc02012d4:	0107883b          	addw	a6,a5,a6
ffffffffc02012d8:	ff072c23          	sw	a6,-8(a4)
    __op_bit(and, __NOT, nr, ((volatile unsigned long *)addr));
ffffffffc02012dc:	57f5                	li	a5,-3
ffffffffc02012de:	60f8b02f          	amoand.d	zero,a5,(a7)
    __list_del(listelm->prev, listelm->next);
ffffffffc02012e2:	6d10                	ld	a2,24(a0)
ffffffffc02012e4:	711c                	ld	a5,32(a0)
            base=p;
ffffffffc02012e6:	852e                	mv	a0,a1
    prev->next = next;
ffffffffc02012e8:	e61c                	sd	a5,8(a2)
    return listelm->next;
ffffffffc02012ea:	6718                	ld	a4,8(a4)
    next->prev = prev;
ffffffffc02012ec:	e390                	sd	a2,0(a5)
ffffffffc02012ee:	b775                	j	ffffffffc020129a <best_fit_free_pages+0xae>
ffffffffc02012f0:	e290                	sd	a2,0(a3)
        while ((le = list_next(le)) != &free_list) {
ffffffffc02012f2:	873e                	mv	a4,a5
ffffffffc02012f4:	b761                	j	ffffffffc020127c <best_fit_free_pages+0x90>
}
ffffffffc02012f6:	60a2                	ld	ra,8(sp)
    prev->next = next->prev = elm;
ffffffffc02012f8:	e390                	sd	a2,0(a5)
ffffffffc02012fa:	e790                	sd	a2,8(a5)
    elm->next = next;
ffffffffc02012fc:	f11c                	sd	a5,32(a0)
    elm->prev = prev;
ffffffffc02012fe:	ed1c                	sd	a5,24(a0)
ffffffffc0201300:	0141                	addi	sp,sp,16
ffffffffc0201302:	8082                	ret
            base->property += p->property;
ffffffffc0201304:	ff872783          	lw	a5,-8(a4)
ffffffffc0201308:	ff070693          	addi	a3,a4,-16
ffffffffc020130c:	9dbd                	addw	a1,a1,a5
ffffffffc020130e:	c90c                	sw	a1,16(a0)
ffffffffc0201310:	57f5                	li	a5,-3
ffffffffc0201312:	60f6b02f          	amoand.d	zero,a5,(a3)
    __list_del(listelm->prev, listelm->next);
ffffffffc0201316:	6314                	ld	a3,0(a4)
ffffffffc0201318:	671c                	ld	a5,8(a4)
}
ffffffffc020131a:	60a2                	ld	ra,8(sp)
    prev->next = next;
ffffffffc020131c:	e69c                	sd	a5,8(a3)
    next->prev = prev;
ffffffffc020131e:	e394                	sd	a3,0(a5)
ffffffffc0201320:	0141                	addi	sp,sp,16
ffffffffc0201322:	8082                	ret
        assert(!PageReserved(p) && !PageProperty(p));
ffffffffc0201324:	00001697          	auipc	a3,0x1
ffffffffc0201328:	1fc68693          	addi	a3,a3,508 # ffffffffc0202520 <commands+0x8f8>
ffffffffc020132c:	00001617          	auipc	a2,0x1
ffffffffc0201330:	f0460613          	addi	a2,a2,-252 # ffffffffc0202230 <commands+0x608>
ffffffffc0201334:	09300593          	li	a1,147
ffffffffc0201338:	00001517          	auipc	a0,0x1
ffffffffc020133c:	f1050513          	addi	a0,a0,-240 # ffffffffc0202248 <commands+0x620>
ffffffffc0201340:	dfbfe0ef          	jal	ra,ffffffffc020013a <__panic>
    assert(n > 0);
ffffffffc0201344:	00001697          	auipc	a3,0x1
ffffffffc0201348:	ee468693          	addi	a3,a3,-284 # ffffffffc0202228 <commands+0x600>
ffffffffc020134c:	00001617          	auipc	a2,0x1
ffffffffc0201350:	ee460613          	addi	a2,a2,-284 # ffffffffc0202230 <commands+0x608>
ffffffffc0201354:	09000593          	li	a1,144
ffffffffc0201358:	00001517          	auipc	a0,0x1
ffffffffc020135c:	ef050513          	addi	a0,a0,-272 # ffffffffc0202248 <commands+0x620>
ffffffffc0201360:	ddbfe0ef          	jal	ra,ffffffffc020013a <__panic>

ffffffffc0201364 <best_fit_init_memmap>:
best_fit_init_memmap(struct Page *base, size_t n) {
ffffffffc0201364:	1141                	addi	sp,sp,-16
ffffffffc0201366:	e406                	sd	ra,8(sp)
    assert(n > 0);
ffffffffc0201368:	c9e1                	beqz	a1,ffffffffc0201438 <best_fit_init_memmap+0xd4>
    for (; p != base + n; p ++) {
ffffffffc020136a:	00259693          	slli	a3,a1,0x2
ffffffffc020136e:	96ae                	add	a3,a3,a1
ffffffffc0201370:	068e                	slli	a3,a3,0x3
ffffffffc0201372:	96aa                	add	a3,a3,a0
ffffffffc0201374:	87aa                	mv	a5,a0
ffffffffc0201376:	00d50f63          	beq	a0,a3,ffffffffc0201394 <best_fit_init_memmap+0x30>
    return (((*(volatile unsigned long *)addr) >> nr) & 1);
ffffffffc020137a:	6798                	ld	a4,8(a5)
        assert(PageReserved(p));
ffffffffc020137c:	8b05                	andi	a4,a4,1
ffffffffc020137e:	cf49                	beqz	a4,ffffffffc0201418 <best_fit_init_memmap+0xb4>
        p->flags=p->property=0;
ffffffffc0201380:	0007a823          	sw	zero,16(a5)
ffffffffc0201384:	0007b423          	sd	zero,8(a5)
ffffffffc0201388:	0007a023          	sw	zero,0(a5)
    for (; p != base + n; p ++) {
ffffffffc020138c:	02878793          	addi	a5,a5,40
ffffffffc0201390:	fed795e3          	bne	a5,a3,ffffffffc020137a <best_fit_init_memmap+0x16>
    base->property = n;
ffffffffc0201394:	2581                	sext.w	a1,a1
ffffffffc0201396:	c90c                	sw	a1,16(a0)
    __op_bit(or, __NOP, nr, ((volatile unsigned long *)addr));
ffffffffc0201398:	4789                	li	a5,2
ffffffffc020139a:	00850713          	addi	a4,a0,8
ffffffffc020139e:	40f7302f          	amoor.d	zero,a5,(a4)
    nr_free += n;
ffffffffc02013a2:	00005697          	auipc	a3,0x5
ffffffffc02013a6:	c6e68693          	addi	a3,a3,-914 # ffffffffc0206010 <free_area>
ffffffffc02013aa:	4a98                	lw	a4,16(a3)
    return list->next == list;
ffffffffc02013ac:	669c                	ld	a5,8(a3)
        list_add(&free_list, &(base->page_link));
ffffffffc02013ae:	01850613          	addi	a2,a0,24
    nr_free += n;
ffffffffc02013b2:	9db9                	addw	a1,a1,a4
ffffffffc02013b4:	ca8c                	sw	a1,16(a3)
    if (list_empty(&free_list)) {
ffffffffc02013b6:	04d78a63          	beq	a5,a3,ffffffffc020140a <best_fit_init_memmap+0xa6>
            struct Page* page = le2page(le, page_link);
ffffffffc02013ba:	fe878713          	addi	a4,a5,-24
ffffffffc02013be:	0006b803          	ld	a6,0(a3)
    if (list_empty(&free_list)) {
ffffffffc02013c2:	4581                	li	a1,0
            if(base<page){
ffffffffc02013c4:	00e56a63          	bltu	a0,a4,ffffffffc02013d8 <best_fit_init_memmap+0x74>
    return listelm->next;
ffffffffc02013c8:	6798                	ld	a4,8(a5)
            }else if(list_next(le) == &free_list){
ffffffffc02013ca:	02d70263          	beq	a4,a3,ffffffffc02013ee <best_fit_init_memmap+0x8a>
    for (; p != base + n; p ++) {
ffffffffc02013ce:	87ba                	mv	a5,a4
            struct Page* page = le2page(le, page_link);
ffffffffc02013d0:	fe878713          	addi	a4,a5,-24
            if(base<page){
ffffffffc02013d4:	fee57ae3          	bgeu	a0,a4,ffffffffc02013c8 <best_fit_init_memmap+0x64>
ffffffffc02013d8:	c199                	beqz	a1,ffffffffc02013de <best_fit_init_memmap+0x7a>
ffffffffc02013da:	0106b023          	sd	a6,0(a3)
    __list_add(elm, listelm->prev, listelm);
ffffffffc02013de:	6398                	ld	a4,0(a5)
}
ffffffffc02013e0:	60a2                	ld	ra,8(sp)
    prev->next = next->prev = elm;
ffffffffc02013e2:	e390                	sd	a2,0(a5)
ffffffffc02013e4:	e710                	sd	a2,8(a4)
    elm->next = next;
ffffffffc02013e6:	f11c                	sd	a5,32(a0)
    elm->prev = prev;
ffffffffc02013e8:	ed18                	sd	a4,24(a0)
ffffffffc02013ea:	0141                	addi	sp,sp,16
ffffffffc02013ec:	8082                	ret
    prev->next = next->prev = elm;
ffffffffc02013ee:	e790                	sd	a2,8(a5)
    elm->next = next;
ffffffffc02013f0:	f114                	sd	a3,32(a0)
    return listelm->next;
ffffffffc02013f2:	6798                	ld	a4,8(a5)
    elm->prev = prev;
ffffffffc02013f4:	ed1c                	sd	a5,24(a0)
        while ((le = list_next(le)) != &free_list) {
ffffffffc02013f6:	00d70663          	beq	a4,a3,ffffffffc0201402 <best_fit_init_memmap+0x9e>
    prev->next = next->prev = elm;
ffffffffc02013fa:	8832                	mv	a6,a2
ffffffffc02013fc:	4585                	li	a1,1
    for (; p != base + n; p ++) {
ffffffffc02013fe:	87ba                	mv	a5,a4
ffffffffc0201400:	bfc1                	j	ffffffffc02013d0 <best_fit_init_memmap+0x6c>
}
ffffffffc0201402:	60a2                	ld	ra,8(sp)
ffffffffc0201404:	e290                	sd	a2,0(a3)
ffffffffc0201406:	0141                	addi	sp,sp,16
ffffffffc0201408:	8082                	ret
ffffffffc020140a:	60a2                	ld	ra,8(sp)
ffffffffc020140c:	e390                	sd	a2,0(a5)
ffffffffc020140e:	e790                	sd	a2,8(a5)
    elm->next = next;
ffffffffc0201410:	f11c                	sd	a5,32(a0)
    elm->prev = prev;
ffffffffc0201412:	ed1c                	sd	a5,24(a0)
ffffffffc0201414:	0141                	addi	sp,sp,16
ffffffffc0201416:	8082                	ret
        assert(PageReserved(p));
ffffffffc0201418:	00001697          	auipc	a3,0x1
ffffffffc020141c:	13068693          	addi	a3,a3,304 # ffffffffc0202548 <commands+0x920>
ffffffffc0201420:	00001617          	auipc	a2,0x1
ffffffffc0201424:	e1060613          	addi	a2,a2,-496 # ffffffffc0202230 <commands+0x608>
ffffffffc0201428:	04b00593          	li	a1,75
ffffffffc020142c:	00001517          	auipc	a0,0x1
ffffffffc0201430:	e1c50513          	addi	a0,a0,-484 # ffffffffc0202248 <commands+0x620>
ffffffffc0201434:	d07fe0ef          	jal	ra,ffffffffc020013a <__panic>
    assert(n > 0);
ffffffffc0201438:	00001697          	auipc	a3,0x1
ffffffffc020143c:	df068693          	addi	a3,a3,-528 # ffffffffc0202228 <commands+0x600>
ffffffffc0201440:	00001617          	auipc	a2,0x1
ffffffffc0201444:	df060613          	addi	a2,a2,-528 # ffffffffc0202230 <commands+0x608>
ffffffffc0201448:	04800593          	li	a1,72
ffffffffc020144c:	00001517          	auipc	a0,0x1
ffffffffc0201450:	dfc50513          	addi	a0,a0,-516 # ffffffffc0202248 <commands+0x620>
ffffffffc0201454:	ce7fe0ef          	jal	ra,ffffffffc020013a <__panic>

ffffffffc0201458 <strnlen>:
 * @len if there is no '\0' character among the first @len characters
 * pointed by @s.
 * */
size_t
strnlen(const char *s, size_t len) {
    size_t cnt = 0;
ffffffffc0201458:	4781                	li	a5,0
    while (cnt < len && *s ++ != '\0') {
ffffffffc020145a:	e589                	bnez	a1,ffffffffc0201464 <strnlen+0xc>
ffffffffc020145c:	a811                	j	ffffffffc0201470 <strnlen+0x18>
        cnt ++;
ffffffffc020145e:	0785                	addi	a5,a5,1
    while (cnt < len && *s ++ != '\0') {
ffffffffc0201460:	00f58863          	beq	a1,a5,ffffffffc0201470 <strnlen+0x18>
ffffffffc0201464:	00f50733          	add	a4,a0,a5
ffffffffc0201468:	00074703          	lbu	a4,0(a4)
ffffffffc020146c:	fb6d                	bnez	a4,ffffffffc020145e <strnlen+0x6>
ffffffffc020146e:	85be                	mv	a1,a5
    }
    return cnt;
}
ffffffffc0201470:	852e                	mv	a0,a1
ffffffffc0201472:	8082                	ret

ffffffffc0201474 <strcmp>:
int
strcmp(const char *s1, const char *s2) {
#ifdef __HAVE_ARCH_STRCMP
    return __strcmp(s1, s2);
#else
    while (*s1 != '\0' && *s1 == *s2) {
ffffffffc0201474:	00054783          	lbu	a5,0(a0)
        s1 ++, s2 ++;
    }
    return (int)((unsigned char)*s1 - (unsigned char)*s2);
ffffffffc0201478:	0005c703          	lbu	a4,0(a1)
    while (*s1 != '\0' && *s1 == *s2) {
ffffffffc020147c:	cb89                	beqz	a5,ffffffffc020148e <strcmp+0x1a>
        s1 ++, s2 ++;
ffffffffc020147e:	0505                	addi	a0,a0,1
ffffffffc0201480:	0585                	addi	a1,a1,1
    while (*s1 != '\0' && *s1 == *s2) {
ffffffffc0201482:	fee789e3          	beq	a5,a4,ffffffffc0201474 <strcmp>
    return (int)((unsigned char)*s1 - (unsigned char)*s2);
ffffffffc0201486:	0007851b          	sext.w	a0,a5
#endif /* __HAVE_ARCH_STRCMP */
}
ffffffffc020148a:	9d19                	subw	a0,a0,a4
ffffffffc020148c:	8082                	ret
ffffffffc020148e:	4501                	li	a0,0
ffffffffc0201490:	bfed                	j	ffffffffc020148a <strcmp+0x16>

ffffffffc0201492 <strchr>:
 * The strchr() function returns a pointer to the first occurrence of
 * character in @s. If the value is not found, the function returns 'NULL'.
 * */
char *
strchr(const char *s, char c) {
    while (*s != '\0') {
ffffffffc0201492:	00054783          	lbu	a5,0(a0)
ffffffffc0201496:	c799                	beqz	a5,ffffffffc02014a4 <strchr+0x12>
        if (*s == c) {
ffffffffc0201498:	00f58763          	beq	a1,a5,ffffffffc02014a6 <strchr+0x14>
    while (*s != '\0') {
ffffffffc020149c:	00154783          	lbu	a5,1(a0)
            return (char *)s;
        }
        s ++;
ffffffffc02014a0:	0505                	addi	a0,a0,1
    while (*s != '\0') {
ffffffffc02014a2:	fbfd                	bnez	a5,ffffffffc0201498 <strchr+0x6>
    }
    return NULL;
ffffffffc02014a4:	4501                	li	a0,0
}
ffffffffc02014a6:	8082                	ret

ffffffffc02014a8 <memset>:
memset(void *s, char c, size_t n) {
#ifdef __HAVE_ARCH_MEMSET
    return __memset(s, c, n);
#else
    char *p = s;
    while (n -- > 0) {
ffffffffc02014a8:	ca01                	beqz	a2,ffffffffc02014b8 <memset+0x10>
ffffffffc02014aa:	962a                	add	a2,a2,a0
    char *p = s;
ffffffffc02014ac:	87aa                	mv	a5,a0
        *p ++ = c;
ffffffffc02014ae:	0785                	addi	a5,a5,1
ffffffffc02014b0:	feb78fa3          	sb	a1,-1(a5)
    while (n -- > 0) {
ffffffffc02014b4:	fec79de3          	bne	a5,a2,ffffffffc02014ae <memset+0x6>
    }
    return s;
#endif /* __HAVE_ARCH_MEMSET */
}
ffffffffc02014b8:	8082                	ret

ffffffffc02014ba <printnum>:
 * */
static void
printnum(void (*putch)(int, void*), void *putdat,
        unsigned long long num, unsigned base, int width, int padc) {
    unsigned long long result = num;
    unsigned mod = do_div(result, base);
ffffffffc02014ba:	02069813          	slli	a6,a3,0x20
        unsigned long long num, unsigned base, int width, int padc) {
ffffffffc02014be:	7179                	addi	sp,sp,-48
    unsigned mod = do_div(result, base);
ffffffffc02014c0:	02085813          	srli	a6,a6,0x20
        unsigned long long num, unsigned base, int width, int padc) {
ffffffffc02014c4:	e052                	sd	s4,0(sp)
    unsigned mod = do_div(result, base);
ffffffffc02014c6:	03067a33          	remu	s4,a2,a6
        unsigned long long num, unsigned base, int width, int padc) {
ffffffffc02014ca:	f022                	sd	s0,32(sp)
ffffffffc02014cc:	ec26                	sd	s1,24(sp)
ffffffffc02014ce:	e84a                	sd	s2,16(sp)
ffffffffc02014d0:	f406                	sd	ra,40(sp)
ffffffffc02014d2:	e44e                	sd	s3,8(sp)
ffffffffc02014d4:	84aa                	mv	s1,a0
ffffffffc02014d6:	892e                	mv	s2,a1
    // first recursively print all preceding (more significant) digits
    if (num >= base) {
        printnum(putch, putdat, result, base, width - 1, padc);
    } else {
        // print any needed pad characters before first digit
        while (-- width > 0)
ffffffffc02014d8:	fff7041b          	addiw	s0,a4,-1
    unsigned mod = do_div(result, base);
ffffffffc02014dc:	2a01                	sext.w	s4,s4
    if (num >= base) {
ffffffffc02014de:	03067e63          	bgeu	a2,a6,ffffffffc020151a <printnum+0x60>
ffffffffc02014e2:	89be                	mv	s3,a5
        while (-- width > 0)
ffffffffc02014e4:	00805763          	blez	s0,ffffffffc02014f2 <printnum+0x38>
ffffffffc02014e8:	347d                	addiw	s0,s0,-1
            putch(padc, putdat);
ffffffffc02014ea:	85ca                	mv	a1,s2
ffffffffc02014ec:	854e                	mv	a0,s3
ffffffffc02014ee:	9482                	jalr	s1
        while (-- width > 0)
ffffffffc02014f0:	fc65                	bnez	s0,ffffffffc02014e8 <printnum+0x2e>
    }
    // then print this (the least significant) digit
    putch("0123456789abcdef"[mod], putdat);
ffffffffc02014f2:	1a02                	slli	s4,s4,0x20
ffffffffc02014f4:	00001797          	auipc	a5,0x1
ffffffffc02014f8:	0b478793          	addi	a5,a5,180 # ffffffffc02025a8 <best_fit_pmm_manager+0x38>
ffffffffc02014fc:	020a5a13          	srli	s4,s4,0x20
ffffffffc0201500:	9a3e                	add	s4,s4,a5
}
ffffffffc0201502:	7402                	ld	s0,32(sp)
    putch("0123456789abcdef"[mod], putdat);
ffffffffc0201504:	000a4503          	lbu	a0,0(s4)
}
ffffffffc0201508:	70a2                	ld	ra,40(sp)
ffffffffc020150a:	69a2                	ld	s3,8(sp)
ffffffffc020150c:	6a02                	ld	s4,0(sp)
    putch("0123456789abcdef"[mod], putdat);
ffffffffc020150e:	85ca                	mv	a1,s2
ffffffffc0201510:	87a6                	mv	a5,s1
}
ffffffffc0201512:	6942                	ld	s2,16(sp)
ffffffffc0201514:	64e2                	ld	s1,24(sp)
ffffffffc0201516:	6145                	addi	sp,sp,48
    putch("0123456789abcdef"[mod], putdat);
ffffffffc0201518:	8782                	jr	a5
        printnum(putch, putdat, result, base, width - 1, padc);
ffffffffc020151a:	03065633          	divu	a2,a2,a6
ffffffffc020151e:	8722                	mv	a4,s0
ffffffffc0201520:	f9bff0ef          	jal	ra,ffffffffc02014ba <printnum>
ffffffffc0201524:	b7f9                	j	ffffffffc02014f2 <printnum+0x38>

ffffffffc0201526 <vprintfmt>:
 *
 * Call this function if you are already dealing with a va_list.
 * Or you probably want printfmt() instead.
 * */
void
vprintfmt(void (*putch)(int, void*), void *putdat, const char *fmt, va_list ap) {
ffffffffc0201526:	7119                	addi	sp,sp,-128
ffffffffc0201528:	f4a6                	sd	s1,104(sp)
ffffffffc020152a:	f0ca                	sd	s2,96(sp)
ffffffffc020152c:	ecce                	sd	s3,88(sp)
ffffffffc020152e:	e8d2                	sd	s4,80(sp)
ffffffffc0201530:	e4d6                	sd	s5,72(sp)
ffffffffc0201532:	e0da                	sd	s6,64(sp)
ffffffffc0201534:	fc5e                	sd	s7,56(sp)
ffffffffc0201536:	f06a                	sd	s10,32(sp)
ffffffffc0201538:	fc86                	sd	ra,120(sp)
ffffffffc020153a:	f8a2                	sd	s0,112(sp)
ffffffffc020153c:	f862                	sd	s8,48(sp)
ffffffffc020153e:	f466                	sd	s9,40(sp)
ffffffffc0201540:	ec6e                	sd	s11,24(sp)
ffffffffc0201542:	892a                	mv	s2,a0
ffffffffc0201544:	84ae                	mv	s1,a1
ffffffffc0201546:	8d32                	mv	s10,a2
ffffffffc0201548:	8a36                	mv	s4,a3
    register int ch, err;
    unsigned long long num;
    int base, width, precision, lflag, altflag;

    while (1) {
        while ((ch = *(unsigned char *)fmt ++) != '%') {
ffffffffc020154a:	02500993          	li	s3,37
            putch(ch, putdat);
        }

        // Process a %-escape sequence
        char padc = ' ';
        width = precision = -1;
ffffffffc020154e:	5b7d                	li	s6,-1
ffffffffc0201550:	00001a97          	auipc	s5,0x1
ffffffffc0201554:	08ca8a93          	addi	s5,s5,140 # ffffffffc02025dc <best_fit_pmm_manager+0x6c>
        case 'e':
            err = va_arg(ap, int);
            if (err < 0) {
                err = -err;
            }
            if (err > MAXERROR || (p = error_string[err]) == NULL) {
ffffffffc0201558:	00001b97          	auipc	s7,0x1
ffffffffc020155c:	260b8b93          	addi	s7,s7,608 # ffffffffc02027b8 <error_string>
        while ((ch = *(unsigned char *)fmt ++) != '%') {
ffffffffc0201560:	000d4503          	lbu	a0,0(s10)
ffffffffc0201564:	001d0413          	addi	s0,s10,1
ffffffffc0201568:	01350a63          	beq	a0,s3,ffffffffc020157c <vprintfmt+0x56>
            if (ch == '\0') {
ffffffffc020156c:	c121                	beqz	a0,ffffffffc02015ac <vprintfmt+0x86>
            putch(ch, putdat);
ffffffffc020156e:	85a6                	mv	a1,s1
        while ((ch = *(unsigned char *)fmt ++) != '%') {
ffffffffc0201570:	0405                	addi	s0,s0,1
            putch(ch, putdat);
ffffffffc0201572:	9902                	jalr	s2
        while ((ch = *(unsigned char *)fmt ++) != '%') {
ffffffffc0201574:	fff44503          	lbu	a0,-1(s0)
ffffffffc0201578:	ff351ae3          	bne	a0,s3,ffffffffc020156c <vprintfmt+0x46>
        switch (ch = *(unsigned char *)fmt ++) {
ffffffffc020157c:	00044603          	lbu	a2,0(s0)
        char padc = ' ';
ffffffffc0201580:	02000793          	li	a5,32
        lflag = altflag = 0;
ffffffffc0201584:	4c81                	li	s9,0
ffffffffc0201586:	4881                	li	a7,0
        width = precision = -1;
ffffffffc0201588:	5c7d                	li	s8,-1
ffffffffc020158a:	5dfd                	li	s11,-1
ffffffffc020158c:	05500513          	li	a0,85
                if (ch < '0' || ch > '9') {
ffffffffc0201590:	4825                	li	a6,9
        switch (ch = *(unsigned char *)fmt ++) {
ffffffffc0201592:	fdd6059b          	addiw	a1,a2,-35
ffffffffc0201596:	0ff5f593          	zext.b	a1,a1
ffffffffc020159a:	00140d13          	addi	s10,s0,1
ffffffffc020159e:	04b56263          	bltu	a0,a1,ffffffffc02015e2 <vprintfmt+0xbc>
ffffffffc02015a2:	058a                	slli	a1,a1,0x2
ffffffffc02015a4:	95d6                	add	a1,a1,s5
ffffffffc02015a6:	4194                	lw	a3,0(a1)
ffffffffc02015a8:	96d6                	add	a3,a3,s5
ffffffffc02015aa:	8682                	jr	a3
            for (fmt --; fmt[-1] != '%'; fmt --)
                /* do nothing */;
            break;
        }
    }
}
ffffffffc02015ac:	70e6                	ld	ra,120(sp)
ffffffffc02015ae:	7446                	ld	s0,112(sp)
ffffffffc02015b0:	74a6                	ld	s1,104(sp)
ffffffffc02015b2:	7906                	ld	s2,96(sp)
ffffffffc02015b4:	69e6                	ld	s3,88(sp)
ffffffffc02015b6:	6a46                	ld	s4,80(sp)
ffffffffc02015b8:	6aa6                	ld	s5,72(sp)
ffffffffc02015ba:	6b06                	ld	s6,64(sp)
ffffffffc02015bc:	7be2                	ld	s7,56(sp)
ffffffffc02015be:	7c42                	ld	s8,48(sp)
ffffffffc02015c0:	7ca2                	ld	s9,40(sp)
ffffffffc02015c2:	7d02                	ld	s10,32(sp)
ffffffffc02015c4:	6de2                	ld	s11,24(sp)
ffffffffc02015c6:	6109                	addi	sp,sp,128
ffffffffc02015c8:	8082                	ret
            padc = '0';
ffffffffc02015ca:	87b2                	mv	a5,a2
            goto reswitch;
ffffffffc02015cc:	00144603          	lbu	a2,1(s0)
        switch (ch = *(unsigned char *)fmt ++) {
ffffffffc02015d0:	846a                	mv	s0,s10
ffffffffc02015d2:	00140d13          	addi	s10,s0,1
ffffffffc02015d6:	fdd6059b          	addiw	a1,a2,-35
ffffffffc02015da:	0ff5f593          	zext.b	a1,a1
ffffffffc02015de:	fcb572e3          	bgeu	a0,a1,ffffffffc02015a2 <vprintfmt+0x7c>
            putch('%', putdat);
ffffffffc02015e2:	85a6                	mv	a1,s1
ffffffffc02015e4:	02500513          	li	a0,37
ffffffffc02015e8:	9902                	jalr	s2
            for (fmt --; fmt[-1] != '%'; fmt --)
ffffffffc02015ea:	fff44783          	lbu	a5,-1(s0)
ffffffffc02015ee:	8d22                	mv	s10,s0
ffffffffc02015f0:	f73788e3          	beq	a5,s3,ffffffffc0201560 <vprintfmt+0x3a>
ffffffffc02015f4:	ffed4783          	lbu	a5,-2(s10)
ffffffffc02015f8:	1d7d                	addi	s10,s10,-1
ffffffffc02015fa:	ff379de3          	bne	a5,s3,ffffffffc02015f4 <vprintfmt+0xce>
ffffffffc02015fe:	b78d                	j	ffffffffc0201560 <vprintfmt+0x3a>
                precision = precision * 10 + ch - '0';
ffffffffc0201600:	fd060c1b          	addiw	s8,a2,-48
                ch = *fmt;
ffffffffc0201604:	00144603          	lbu	a2,1(s0)
        switch (ch = *(unsigned char *)fmt ++) {
ffffffffc0201608:	846a                	mv	s0,s10
                if (ch < '0' || ch > '9') {
ffffffffc020160a:	fd06069b          	addiw	a3,a2,-48
                ch = *fmt;
ffffffffc020160e:	0006059b          	sext.w	a1,a2
                if (ch < '0' || ch > '9') {
ffffffffc0201612:	02d86463          	bltu	a6,a3,ffffffffc020163a <vprintfmt+0x114>
                ch = *fmt;
ffffffffc0201616:	00144603          	lbu	a2,1(s0)
                precision = precision * 10 + ch - '0';
ffffffffc020161a:	002c169b          	slliw	a3,s8,0x2
ffffffffc020161e:	0186873b          	addw	a4,a3,s8
ffffffffc0201622:	0017171b          	slliw	a4,a4,0x1
ffffffffc0201626:	9f2d                	addw	a4,a4,a1
                if (ch < '0' || ch > '9') {
ffffffffc0201628:	fd06069b          	addiw	a3,a2,-48
            for (precision = 0; ; ++ fmt) {
ffffffffc020162c:	0405                	addi	s0,s0,1
                precision = precision * 10 + ch - '0';
ffffffffc020162e:	fd070c1b          	addiw	s8,a4,-48
                ch = *fmt;
ffffffffc0201632:	0006059b          	sext.w	a1,a2
                if (ch < '0' || ch > '9') {
ffffffffc0201636:	fed870e3          	bgeu	a6,a3,ffffffffc0201616 <vprintfmt+0xf0>
            if (width < 0)
ffffffffc020163a:	f40ddce3          	bgez	s11,ffffffffc0201592 <vprintfmt+0x6c>
                width = precision, precision = -1;
ffffffffc020163e:	8de2                	mv	s11,s8
ffffffffc0201640:	5c7d                	li	s8,-1
ffffffffc0201642:	bf81                	j	ffffffffc0201592 <vprintfmt+0x6c>
            if (width < 0)
ffffffffc0201644:	fffdc693          	not	a3,s11
ffffffffc0201648:	96fd                	srai	a3,a3,0x3f
ffffffffc020164a:	00ddfdb3          	and	s11,s11,a3
        switch (ch = *(unsigned char *)fmt ++) {
ffffffffc020164e:	00144603          	lbu	a2,1(s0)
ffffffffc0201652:	2d81                	sext.w	s11,s11
ffffffffc0201654:	846a                	mv	s0,s10
            goto reswitch;
ffffffffc0201656:	bf35                	j	ffffffffc0201592 <vprintfmt+0x6c>
            precision = va_arg(ap, int);
ffffffffc0201658:	000a2c03          	lw	s8,0(s4)
        switch (ch = *(unsigned char *)fmt ++) {
ffffffffc020165c:	00144603          	lbu	a2,1(s0)
            precision = va_arg(ap, int);
ffffffffc0201660:	0a21                	addi	s4,s4,8
        switch (ch = *(unsigned char *)fmt ++) {
ffffffffc0201662:	846a                	mv	s0,s10
            goto process_precision;
ffffffffc0201664:	bfd9                	j	ffffffffc020163a <vprintfmt+0x114>
    if (lflag >= 2) {
ffffffffc0201666:	4705                	li	a4,1
            precision = va_arg(ap, int);
ffffffffc0201668:	008a0593          	addi	a1,s4,8
    if (lflag >= 2) {
ffffffffc020166c:	01174463          	blt	a4,a7,ffffffffc0201674 <vprintfmt+0x14e>
    else if (lflag) {
ffffffffc0201670:	1a088e63          	beqz	a7,ffffffffc020182c <vprintfmt+0x306>
        return va_arg(*ap, unsigned long);
ffffffffc0201674:	000a3603          	ld	a2,0(s4)
ffffffffc0201678:	46c1                	li	a3,16
ffffffffc020167a:	8a2e                	mv	s4,a1
            printnum(putch, putdat, num, base, width, padc);
ffffffffc020167c:	2781                	sext.w	a5,a5
ffffffffc020167e:	876e                	mv	a4,s11
ffffffffc0201680:	85a6                	mv	a1,s1
ffffffffc0201682:	854a                	mv	a0,s2
ffffffffc0201684:	e37ff0ef          	jal	ra,ffffffffc02014ba <printnum>
            break;
ffffffffc0201688:	bde1                	j	ffffffffc0201560 <vprintfmt+0x3a>
            putch(va_arg(ap, int), putdat);
ffffffffc020168a:	000a2503          	lw	a0,0(s4)
ffffffffc020168e:	85a6                	mv	a1,s1
ffffffffc0201690:	0a21                	addi	s4,s4,8
ffffffffc0201692:	9902                	jalr	s2
            break;
ffffffffc0201694:	b5f1                	j	ffffffffc0201560 <vprintfmt+0x3a>
    if (lflag >= 2) {
ffffffffc0201696:	4705                	li	a4,1
            precision = va_arg(ap, int);
ffffffffc0201698:	008a0593          	addi	a1,s4,8
    if (lflag >= 2) {
ffffffffc020169c:	01174463          	blt	a4,a7,ffffffffc02016a4 <vprintfmt+0x17e>
    else if (lflag) {
ffffffffc02016a0:	18088163          	beqz	a7,ffffffffc0201822 <vprintfmt+0x2fc>
        return va_arg(*ap, unsigned long);
ffffffffc02016a4:	000a3603          	ld	a2,0(s4)
ffffffffc02016a8:	46a9                	li	a3,10
ffffffffc02016aa:	8a2e                	mv	s4,a1
ffffffffc02016ac:	bfc1                	j	ffffffffc020167c <vprintfmt+0x156>
        switch (ch = *(unsigned char *)fmt ++) {
ffffffffc02016ae:	00144603          	lbu	a2,1(s0)
            altflag = 1;
ffffffffc02016b2:	4c85                	li	s9,1
        switch (ch = *(unsigned char *)fmt ++) {
ffffffffc02016b4:	846a                	mv	s0,s10
            goto reswitch;
ffffffffc02016b6:	bdf1                	j	ffffffffc0201592 <vprintfmt+0x6c>
            putch(ch, putdat);
ffffffffc02016b8:	85a6                	mv	a1,s1
ffffffffc02016ba:	02500513          	li	a0,37
ffffffffc02016be:	9902                	jalr	s2
            break;
ffffffffc02016c0:	b545                	j	ffffffffc0201560 <vprintfmt+0x3a>
        switch (ch = *(unsigned char *)fmt ++) {
ffffffffc02016c2:	00144603          	lbu	a2,1(s0)
            lflag ++;
ffffffffc02016c6:	2885                	addiw	a7,a7,1
        switch (ch = *(unsigned char *)fmt ++) {
ffffffffc02016c8:	846a                	mv	s0,s10
            goto reswitch;
ffffffffc02016ca:	b5e1                	j	ffffffffc0201592 <vprintfmt+0x6c>
    if (lflag >= 2) {
ffffffffc02016cc:	4705                	li	a4,1
            precision = va_arg(ap, int);
ffffffffc02016ce:	008a0593          	addi	a1,s4,8
    if (lflag >= 2) {
ffffffffc02016d2:	01174463          	blt	a4,a7,ffffffffc02016da <vprintfmt+0x1b4>
    else if (lflag) {
ffffffffc02016d6:	14088163          	beqz	a7,ffffffffc0201818 <vprintfmt+0x2f2>
        return va_arg(*ap, unsigned long);
ffffffffc02016da:	000a3603          	ld	a2,0(s4)
ffffffffc02016de:	46a1                	li	a3,8
ffffffffc02016e0:	8a2e                	mv	s4,a1
ffffffffc02016e2:	bf69                	j	ffffffffc020167c <vprintfmt+0x156>
            putch('0', putdat);
ffffffffc02016e4:	03000513          	li	a0,48
ffffffffc02016e8:	85a6                	mv	a1,s1
ffffffffc02016ea:	e03e                	sd	a5,0(sp)
ffffffffc02016ec:	9902                	jalr	s2
            putch('x', putdat);
ffffffffc02016ee:	85a6                	mv	a1,s1
ffffffffc02016f0:	07800513          	li	a0,120
ffffffffc02016f4:	9902                	jalr	s2
            num = (unsigned long long)(uintptr_t)va_arg(ap, void *);
ffffffffc02016f6:	0a21                	addi	s4,s4,8
            goto number;
ffffffffc02016f8:	6782                	ld	a5,0(sp)
ffffffffc02016fa:	46c1                	li	a3,16
            num = (unsigned long long)(uintptr_t)va_arg(ap, void *);
ffffffffc02016fc:	ff8a3603          	ld	a2,-8(s4)
            goto number;
ffffffffc0201700:	bfb5                	j	ffffffffc020167c <vprintfmt+0x156>
            if ((p = va_arg(ap, char *)) == NULL) {
ffffffffc0201702:	000a3403          	ld	s0,0(s4)
ffffffffc0201706:	008a0713          	addi	a4,s4,8
ffffffffc020170a:	e03a                	sd	a4,0(sp)
ffffffffc020170c:	14040263          	beqz	s0,ffffffffc0201850 <vprintfmt+0x32a>
            if (width > 0 && padc != '-') {
ffffffffc0201710:	0fb05763          	blez	s11,ffffffffc02017fe <vprintfmt+0x2d8>
ffffffffc0201714:	02d00693          	li	a3,45
ffffffffc0201718:	0cd79163          	bne	a5,a3,ffffffffc02017da <vprintfmt+0x2b4>
            for (; (ch = *p ++) != '\0' && (precision < 0 || -- precision >= 0); width --) {
ffffffffc020171c:	00044783          	lbu	a5,0(s0)
ffffffffc0201720:	0007851b          	sext.w	a0,a5
ffffffffc0201724:	cf85                	beqz	a5,ffffffffc020175c <vprintfmt+0x236>
ffffffffc0201726:	00140a13          	addi	s4,s0,1
                if (altflag && (ch < ' ' || ch > '~')) {
ffffffffc020172a:	05e00413          	li	s0,94
            for (; (ch = *p ++) != '\0' && (precision < 0 || -- precision >= 0); width --) {
ffffffffc020172e:	000c4563          	bltz	s8,ffffffffc0201738 <vprintfmt+0x212>
ffffffffc0201732:	3c7d                	addiw	s8,s8,-1
ffffffffc0201734:	036c0263          	beq	s8,s6,ffffffffc0201758 <vprintfmt+0x232>
                    putch('?', putdat);
ffffffffc0201738:	85a6                	mv	a1,s1
                if (altflag && (ch < ' ' || ch > '~')) {
ffffffffc020173a:	0e0c8e63          	beqz	s9,ffffffffc0201836 <vprintfmt+0x310>
ffffffffc020173e:	3781                	addiw	a5,a5,-32
ffffffffc0201740:	0ef47b63          	bgeu	s0,a5,ffffffffc0201836 <vprintfmt+0x310>
                    putch('?', putdat);
ffffffffc0201744:	03f00513          	li	a0,63
ffffffffc0201748:	9902                	jalr	s2
            for (; (ch = *p ++) != '\0' && (precision < 0 || -- precision >= 0); width --) {
ffffffffc020174a:	000a4783          	lbu	a5,0(s4)
ffffffffc020174e:	3dfd                	addiw	s11,s11,-1
ffffffffc0201750:	0a05                	addi	s4,s4,1
ffffffffc0201752:	0007851b          	sext.w	a0,a5
ffffffffc0201756:	ffe1                	bnez	a5,ffffffffc020172e <vprintfmt+0x208>
            for (; width > 0; width --) {
ffffffffc0201758:	01b05963          	blez	s11,ffffffffc020176a <vprintfmt+0x244>
ffffffffc020175c:	3dfd                	addiw	s11,s11,-1
                putch(' ', putdat);
ffffffffc020175e:	85a6                	mv	a1,s1
ffffffffc0201760:	02000513          	li	a0,32
ffffffffc0201764:	9902                	jalr	s2
            for (; width > 0; width --) {
ffffffffc0201766:	fe0d9be3          	bnez	s11,ffffffffc020175c <vprintfmt+0x236>
            if ((p = va_arg(ap, char *)) == NULL) {
ffffffffc020176a:	6a02                	ld	s4,0(sp)
ffffffffc020176c:	bbd5                	j	ffffffffc0201560 <vprintfmt+0x3a>
    if (lflag >= 2) {
ffffffffc020176e:	4705                	li	a4,1
            precision = va_arg(ap, int);
ffffffffc0201770:	008a0c93          	addi	s9,s4,8
    if (lflag >= 2) {
ffffffffc0201774:	01174463          	blt	a4,a7,ffffffffc020177c <vprintfmt+0x256>
    else if (lflag) {
ffffffffc0201778:	08088d63          	beqz	a7,ffffffffc0201812 <vprintfmt+0x2ec>
        return va_arg(*ap, long);
ffffffffc020177c:	000a3403          	ld	s0,0(s4)
            if ((long long)num < 0) {
ffffffffc0201780:	0a044d63          	bltz	s0,ffffffffc020183a <vprintfmt+0x314>
            num = getint(&ap, lflag);
ffffffffc0201784:	8622                	mv	a2,s0
ffffffffc0201786:	8a66                	mv	s4,s9
ffffffffc0201788:	46a9                	li	a3,10
ffffffffc020178a:	bdcd                	j	ffffffffc020167c <vprintfmt+0x156>
            err = va_arg(ap, int);
ffffffffc020178c:	000a2783          	lw	a5,0(s4)
            if (err > MAXERROR || (p = error_string[err]) == NULL) {
ffffffffc0201790:	4719                	li	a4,6
            err = va_arg(ap, int);
ffffffffc0201792:	0a21                	addi	s4,s4,8
            if (err < 0) {
ffffffffc0201794:	41f7d69b          	sraiw	a3,a5,0x1f
ffffffffc0201798:	8fb5                	xor	a5,a5,a3
ffffffffc020179a:	40d786bb          	subw	a3,a5,a3
            if (err > MAXERROR || (p = error_string[err]) == NULL) {
ffffffffc020179e:	02d74163          	blt	a4,a3,ffffffffc02017c0 <vprintfmt+0x29a>
ffffffffc02017a2:	00369793          	slli	a5,a3,0x3
ffffffffc02017a6:	97de                	add	a5,a5,s7
ffffffffc02017a8:	639c                	ld	a5,0(a5)
ffffffffc02017aa:	cb99                	beqz	a5,ffffffffc02017c0 <vprintfmt+0x29a>
                printfmt(putch, putdat, "%s", p);
ffffffffc02017ac:	86be                	mv	a3,a5
ffffffffc02017ae:	00001617          	auipc	a2,0x1
ffffffffc02017b2:	e2a60613          	addi	a2,a2,-470 # ffffffffc02025d8 <best_fit_pmm_manager+0x68>
ffffffffc02017b6:	85a6                	mv	a1,s1
ffffffffc02017b8:	854a                	mv	a0,s2
ffffffffc02017ba:	0ce000ef          	jal	ra,ffffffffc0201888 <printfmt>
ffffffffc02017be:	b34d                	j	ffffffffc0201560 <vprintfmt+0x3a>
                printfmt(putch, putdat, "error %d", err);
ffffffffc02017c0:	00001617          	auipc	a2,0x1
ffffffffc02017c4:	e0860613          	addi	a2,a2,-504 # ffffffffc02025c8 <best_fit_pmm_manager+0x58>
ffffffffc02017c8:	85a6                	mv	a1,s1
ffffffffc02017ca:	854a                	mv	a0,s2
ffffffffc02017cc:	0bc000ef          	jal	ra,ffffffffc0201888 <printfmt>
ffffffffc02017d0:	bb41                	j	ffffffffc0201560 <vprintfmt+0x3a>
                p = "(null)";
ffffffffc02017d2:	00001417          	auipc	s0,0x1
ffffffffc02017d6:	dee40413          	addi	s0,s0,-530 # ffffffffc02025c0 <best_fit_pmm_manager+0x50>
                for (width -= strnlen(p, precision); width > 0; width --) {
ffffffffc02017da:	85e2                	mv	a1,s8
ffffffffc02017dc:	8522                	mv	a0,s0
ffffffffc02017de:	e43e                	sd	a5,8(sp)
ffffffffc02017e0:	c79ff0ef          	jal	ra,ffffffffc0201458 <strnlen>
ffffffffc02017e4:	40ad8dbb          	subw	s11,s11,a0
ffffffffc02017e8:	01b05b63          	blez	s11,ffffffffc02017fe <vprintfmt+0x2d8>
                    putch(padc, putdat);
ffffffffc02017ec:	67a2                	ld	a5,8(sp)
ffffffffc02017ee:	00078a1b          	sext.w	s4,a5
                for (width -= strnlen(p, precision); width > 0; width --) {
ffffffffc02017f2:	3dfd                	addiw	s11,s11,-1
                    putch(padc, putdat);
ffffffffc02017f4:	85a6                	mv	a1,s1
ffffffffc02017f6:	8552                	mv	a0,s4
ffffffffc02017f8:	9902                	jalr	s2
                for (width -= strnlen(p, precision); width > 0; width --) {
ffffffffc02017fa:	fe0d9ce3          	bnez	s11,ffffffffc02017f2 <vprintfmt+0x2cc>
            for (; (ch = *p ++) != '\0' && (precision < 0 || -- precision >= 0); width --) {
ffffffffc02017fe:	00044783          	lbu	a5,0(s0)
ffffffffc0201802:	00140a13          	addi	s4,s0,1
ffffffffc0201806:	0007851b          	sext.w	a0,a5
ffffffffc020180a:	d3a5                	beqz	a5,ffffffffc020176a <vprintfmt+0x244>
                if (altflag && (ch < ' ' || ch > '~')) {
ffffffffc020180c:	05e00413          	li	s0,94
ffffffffc0201810:	bf39                	j	ffffffffc020172e <vprintfmt+0x208>
        return va_arg(*ap, int);
ffffffffc0201812:	000a2403          	lw	s0,0(s4)
ffffffffc0201816:	b7ad                	j	ffffffffc0201780 <vprintfmt+0x25a>
        return va_arg(*ap, unsigned int);
ffffffffc0201818:	000a6603          	lwu	a2,0(s4)
ffffffffc020181c:	46a1                	li	a3,8
ffffffffc020181e:	8a2e                	mv	s4,a1
ffffffffc0201820:	bdb1                	j	ffffffffc020167c <vprintfmt+0x156>
ffffffffc0201822:	000a6603          	lwu	a2,0(s4)
ffffffffc0201826:	46a9                	li	a3,10
ffffffffc0201828:	8a2e                	mv	s4,a1
ffffffffc020182a:	bd89                	j	ffffffffc020167c <vprintfmt+0x156>
ffffffffc020182c:	000a6603          	lwu	a2,0(s4)
ffffffffc0201830:	46c1                	li	a3,16
ffffffffc0201832:	8a2e                	mv	s4,a1
ffffffffc0201834:	b5a1                	j	ffffffffc020167c <vprintfmt+0x156>
                    putch(ch, putdat);
ffffffffc0201836:	9902                	jalr	s2
ffffffffc0201838:	bf09                	j	ffffffffc020174a <vprintfmt+0x224>
                putch('-', putdat);
ffffffffc020183a:	85a6                	mv	a1,s1
ffffffffc020183c:	02d00513          	li	a0,45
ffffffffc0201840:	e03e                	sd	a5,0(sp)
ffffffffc0201842:	9902                	jalr	s2
                num = -(long long)num;
ffffffffc0201844:	6782                	ld	a5,0(sp)
ffffffffc0201846:	8a66                	mv	s4,s9
ffffffffc0201848:	40800633          	neg	a2,s0
ffffffffc020184c:	46a9                	li	a3,10
ffffffffc020184e:	b53d                	j	ffffffffc020167c <vprintfmt+0x156>
            if (width > 0 && padc != '-') {
ffffffffc0201850:	03b05163          	blez	s11,ffffffffc0201872 <vprintfmt+0x34c>
ffffffffc0201854:	02d00693          	li	a3,45
ffffffffc0201858:	f6d79de3          	bne	a5,a3,ffffffffc02017d2 <vprintfmt+0x2ac>
                p = "(null)";
ffffffffc020185c:	00001417          	auipc	s0,0x1
ffffffffc0201860:	d6440413          	addi	s0,s0,-668 # ffffffffc02025c0 <best_fit_pmm_manager+0x50>
            for (; (ch = *p ++) != '\0' && (precision < 0 || -- precision >= 0); width --) {
ffffffffc0201864:	02800793          	li	a5,40
ffffffffc0201868:	02800513          	li	a0,40
ffffffffc020186c:	00140a13          	addi	s4,s0,1
ffffffffc0201870:	bd6d                	j	ffffffffc020172a <vprintfmt+0x204>
ffffffffc0201872:	00001a17          	auipc	s4,0x1
ffffffffc0201876:	d4fa0a13          	addi	s4,s4,-689 # ffffffffc02025c1 <best_fit_pmm_manager+0x51>
ffffffffc020187a:	02800513          	li	a0,40
ffffffffc020187e:	02800793          	li	a5,40
                if (altflag && (ch < ' ' || ch > '~')) {
ffffffffc0201882:	05e00413          	li	s0,94
ffffffffc0201886:	b565                	j	ffffffffc020172e <vprintfmt+0x208>

ffffffffc0201888 <printfmt>:
printfmt(void (*putch)(int, void*), void *putdat, const char *fmt, ...) {
ffffffffc0201888:	715d                	addi	sp,sp,-80
    va_start(ap, fmt);
ffffffffc020188a:	02810313          	addi	t1,sp,40
printfmt(void (*putch)(int, void*), void *putdat, const char *fmt, ...) {
ffffffffc020188e:	f436                	sd	a3,40(sp)
    vprintfmt(putch, putdat, fmt, ap);
ffffffffc0201890:	869a                	mv	a3,t1
printfmt(void (*putch)(int, void*), void *putdat, const char *fmt, ...) {
ffffffffc0201892:	ec06                	sd	ra,24(sp)
ffffffffc0201894:	f83a                	sd	a4,48(sp)
ffffffffc0201896:	fc3e                	sd	a5,56(sp)
ffffffffc0201898:	e0c2                	sd	a6,64(sp)
ffffffffc020189a:	e4c6                	sd	a7,72(sp)
    va_start(ap, fmt);
ffffffffc020189c:	e41a                	sd	t1,8(sp)
    vprintfmt(putch, putdat, fmt, ap);
ffffffffc020189e:	c89ff0ef          	jal	ra,ffffffffc0201526 <vprintfmt>
}
ffffffffc02018a2:	60e2                	ld	ra,24(sp)
ffffffffc02018a4:	6161                	addi	sp,sp,80
ffffffffc02018a6:	8082                	ret

ffffffffc02018a8 <readline>:
 * The readline() function returns the text of the line read. If some errors
 * are happened, NULL is returned. The return value is a global variable,
 * thus it should be copied before it is used.
 * */
char *
readline(const char *prompt) {
ffffffffc02018a8:	715d                	addi	sp,sp,-80
ffffffffc02018aa:	e486                	sd	ra,72(sp)
ffffffffc02018ac:	e0a6                	sd	s1,64(sp)
ffffffffc02018ae:	fc4a                	sd	s2,56(sp)
ffffffffc02018b0:	f84e                	sd	s3,48(sp)
ffffffffc02018b2:	f452                	sd	s4,40(sp)
ffffffffc02018b4:	f056                	sd	s5,32(sp)
ffffffffc02018b6:	ec5a                	sd	s6,24(sp)
ffffffffc02018b8:	e85e                	sd	s7,16(sp)
    if (prompt != NULL) {
ffffffffc02018ba:	c901                	beqz	a0,ffffffffc02018ca <readline+0x22>
ffffffffc02018bc:	85aa                	mv	a1,a0
        cprintf("%s", prompt);
ffffffffc02018be:	00001517          	auipc	a0,0x1
ffffffffc02018c2:	d1a50513          	addi	a0,a0,-742 # ffffffffc02025d8 <best_fit_pmm_manager+0x68>
ffffffffc02018c6:	fecfe0ef          	jal	ra,ffffffffc02000b2 <cprintf>
readline(const char *prompt) {
ffffffffc02018ca:	4481                	li	s1,0
    while (1) {
        c = getchar();
        if (c < 0) {
            return NULL;
        }
        else if (c >= ' ' && i < BUFSIZE - 1) {
ffffffffc02018cc:	497d                	li	s2,31
            cputchar(c);
            buf[i ++] = c;
        }
        else if (c == '\b' && i > 0) {
ffffffffc02018ce:	49a1                	li	s3,8
            cputchar(c);
            i --;
        }
        else if (c == '\n' || c == '\r') {
ffffffffc02018d0:	4aa9                	li	s5,10
ffffffffc02018d2:	4b35                	li	s6,13
            buf[i ++] = c;
ffffffffc02018d4:	00004b97          	auipc	s7,0x4
ffffffffc02018d8:	754b8b93          	addi	s7,s7,1876 # ffffffffc0206028 <buf>
        else if (c >= ' ' && i < BUFSIZE - 1) {
ffffffffc02018dc:	3fe00a13          	li	s4,1022
        c = getchar();
ffffffffc02018e0:	84bfe0ef          	jal	ra,ffffffffc020012a <getchar>
        if (c < 0) {
ffffffffc02018e4:	00054a63          	bltz	a0,ffffffffc02018f8 <readline+0x50>
        else if (c >= ' ' && i < BUFSIZE - 1) {
ffffffffc02018e8:	00a95a63          	bge	s2,a0,ffffffffc02018fc <readline+0x54>
ffffffffc02018ec:	029a5263          	bge	s4,s1,ffffffffc0201910 <readline+0x68>
        c = getchar();
ffffffffc02018f0:	83bfe0ef          	jal	ra,ffffffffc020012a <getchar>
        if (c < 0) {
ffffffffc02018f4:	fe055ae3          	bgez	a0,ffffffffc02018e8 <readline+0x40>
            return NULL;
ffffffffc02018f8:	4501                	li	a0,0
ffffffffc02018fa:	a091                	j	ffffffffc020193e <readline+0x96>
        else if (c == '\b' && i > 0) {
ffffffffc02018fc:	03351463          	bne	a0,s3,ffffffffc0201924 <readline+0x7c>
ffffffffc0201900:	e8a9                	bnez	s1,ffffffffc0201952 <readline+0xaa>
        c = getchar();
ffffffffc0201902:	829fe0ef          	jal	ra,ffffffffc020012a <getchar>
        if (c < 0) {
ffffffffc0201906:	fe0549e3          	bltz	a0,ffffffffc02018f8 <readline+0x50>
        else if (c >= ' ' && i < BUFSIZE - 1) {
ffffffffc020190a:	fea959e3          	bge	s2,a0,ffffffffc02018fc <readline+0x54>
ffffffffc020190e:	4481                	li	s1,0
            cputchar(c);
ffffffffc0201910:	e42a                	sd	a0,8(sp)
ffffffffc0201912:	fd6fe0ef          	jal	ra,ffffffffc02000e8 <cputchar>
            buf[i ++] = c;
ffffffffc0201916:	6522                	ld	a0,8(sp)
ffffffffc0201918:	009b87b3          	add	a5,s7,s1
ffffffffc020191c:	2485                	addiw	s1,s1,1
ffffffffc020191e:	00a78023          	sb	a0,0(a5)
ffffffffc0201922:	bf7d                	j	ffffffffc02018e0 <readline+0x38>
        else if (c == '\n' || c == '\r') {
ffffffffc0201924:	01550463          	beq	a0,s5,ffffffffc020192c <readline+0x84>
ffffffffc0201928:	fb651ce3          	bne	a0,s6,ffffffffc02018e0 <readline+0x38>
            cputchar(c);
ffffffffc020192c:	fbcfe0ef          	jal	ra,ffffffffc02000e8 <cputchar>
            buf[i] = '\0';
ffffffffc0201930:	00004517          	auipc	a0,0x4
ffffffffc0201934:	6f850513          	addi	a0,a0,1784 # ffffffffc0206028 <buf>
ffffffffc0201938:	94aa                	add	s1,s1,a0
ffffffffc020193a:	00048023          	sb	zero,0(s1)
            return buf;
        }
    }
}
ffffffffc020193e:	60a6                	ld	ra,72(sp)
ffffffffc0201940:	6486                	ld	s1,64(sp)
ffffffffc0201942:	7962                	ld	s2,56(sp)
ffffffffc0201944:	79c2                	ld	s3,48(sp)
ffffffffc0201946:	7a22                	ld	s4,40(sp)
ffffffffc0201948:	7a82                	ld	s5,32(sp)
ffffffffc020194a:	6b62                	ld	s6,24(sp)
ffffffffc020194c:	6bc2                	ld	s7,16(sp)
ffffffffc020194e:	6161                	addi	sp,sp,80
ffffffffc0201950:	8082                	ret
            cputchar(c);
ffffffffc0201952:	4521                	li	a0,8
ffffffffc0201954:	f94fe0ef          	jal	ra,ffffffffc02000e8 <cputchar>
            i --;
ffffffffc0201958:	34fd                	addiw	s1,s1,-1
ffffffffc020195a:	b759                	j	ffffffffc02018e0 <readline+0x38>

ffffffffc020195c <sbi_console_putchar>:
uint64_t SBI_REMOTE_SFENCE_VMA_ASID = 7;
uint64_t SBI_SHUTDOWN = 8;

uint64_t sbi_call(uint64_t sbi_type, uint64_t arg0, uint64_t arg1, uint64_t arg2) {
    uint64_t ret_val;
    __asm__ volatile (
ffffffffc020195c:	4781                	li	a5,0
ffffffffc020195e:	00004717          	auipc	a4,0x4
ffffffffc0201962:	6aa73703          	ld	a4,1706(a4) # ffffffffc0206008 <SBI_CONSOLE_PUTCHAR>
ffffffffc0201966:	88ba                	mv	a7,a4
ffffffffc0201968:	852a                	mv	a0,a0
ffffffffc020196a:	85be                	mv	a1,a5
ffffffffc020196c:	863e                	mv	a2,a5
ffffffffc020196e:	00000073          	ecall
ffffffffc0201972:	87aa                	mv	a5,a0
    return ret_val;
}

void sbi_console_putchar(unsigned char ch) {
    sbi_call(SBI_CONSOLE_PUTCHAR, ch, 0, 0);
}
ffffffffc0201974:	8082                	ret

ffffffffc0201976 <sbi_set_timer>:
    __asm__ volatile (
ffffffffc0201976:	4781                	li	a5,0
ffffffffc0201978:	00005717          	auipc	a4,0x5
ffffffffc020197c:	af073703          	ld	a4,-1296(a4) # ffffffffc0206468 <SBI_SET_TIMER>
ffffffffc0201980:	88ba                	mv	a7,a4
ffffffffc0201982:	852a                	mv	a0,a0
ffffffffc0201984:	85be                	mv	a1,a5
ffffffffc0201986:	863e                	mv	a2,a5
ffffffffc0201988:	00000073          	ecall
ffffffffc020198c:	87aa                	mv	a5,a0

void sbi_set_timer(unsigned long long stime_value) {
    sbi_call(SBI_SET_TIMER, stime_value, 0, 0);
}
ffffffffc020198e:	8082                	ret

ffffffffc0201990 <sbi_console_getchar>:
    __asm__ volatile (
ffffffffc0201990:	4501                	li	a0,0
ffffffffc0201992:	00004797          	auipc	a5,0x4
ffffffffc0201996:	66e7b783          	ld	a5,1646(a5) # ffffffffc0206000 <SBI_CONSOLE_GETCHAR>
ffffffffc020199a:	88be                	mv	a7,a5
ffffffffc020199c:	852a                	mv	a0,a0
ffffffffc020199e:	85aa                	mv	a1,a0
ffffffffc02019a0:	862a                	mv	a2,a0
ffffffffc02019a2:	00000073          	ecall
ffffffffc02019a6:	852a                	mv	a0,a0

int sbi_console_getchar(void) {
    return sbi_call(SBI_CONSOLE_GETCHAR, 0, 0, 0);
ffffffffc02019a8:	2501                	sext.w	a0,a0
ffffffffc02019aa:	8082                	ret
